
main.out:     file format elf64-littleaarch64
main.out
architecture: aarch64, flags 0x00000150:
HAS_SYMS, DYNAMIC, D_PAGED
start address 0x00000000000625fc

Program Header:
    PHDR off    0x0000000000000040 vaddr 0x0000000000000040 paddr 0x0000000000000040 align 2**3
         filesz 0x0000000000000268 memsz 0x0000000000000268 flags r--
  INTERP off    0x00000000000002a8 vaddr 0x00000000000002a8 paddr 0x00000000000002a8 align 2**0
         filesz 0x0000000000000015 memsz 0x0000000000000015 flags r--
    LOAD off    0x0000000000000000 vaddr 0x0000000000000000 paddr 0x0000000000000000 align 2**12
         filesz 0x00000000000615fc memsz 0x00000000000615fc flags r--
    LOAD off    0x00000000000615fc vaddr 0x00000000000625fc paddr 0x00000000000625fc align 2**12
         filesz 0x0000000000001d34 memsz 0x0000000000001d34 flags r-x
    LOAD off    0x0000000000063330 vaddr 0x0000000000065330 paddr 0x0000000000065330 align 2**12
         filesz 0x0000000000000298 memsz 0x0000000000000298 flags rw-
    LOAD off    0x00000000000635c8 vaddr 0x00000000000665c8 paddr 0x00000000000665c8 align 2**12
         filesz 0x0000000000000000 memsz 0x0000000000001010 flags rw-
 DYNAMIC off    0x0000000000063360 vaddr 0x0000000000065360 paddr 0x0000000000065360 align 2**3
         filesz 0x00000000000001d0 memsz 0x00000000000001d0 flags rw-
   RELRO off    0x0000000000063330 vaddr 0x0000000000065330 paddr 0x0000000000065330 align 2**0
         filesz 0x0000000000000298 memsz 0x0000000000000cd0 flags r--
EH_FRAME off    0x00000000000611f0 vaddr 0x00000000000611f0 paddr 0x00000000000611f0 align 2**2
         filesz 0x00000000000000dc memsz 0x00000000000000dc flags r--
   STACK off    0x0000000000000000 vaddr 0x0000000000000000 paddr 0x0000000000000000 align 2**0
         filesz 0x0000000000000000 memsz 0x0000000000000000 flags rw-
    NOTE off    0x00000000000002c0 vaddr 0x00000000000002c0 paddr 0x00000000000002c0 align 2**2
         filesz 0x0000000000000098 memsz 0x0000000000000098 flags r--

Dynamic Section:
  RUNPATH              /data/data/com.termux/files/usr/lib
  NEEDED               libdl.so
  NEEDED               libc.so
  FLAGS                0x0000000000000008
  FLAGS_1              0x0000000008000001
  DEBUG                0x0000000000000000
  RELA                 0x0000000000000598
  RELASZ               0x0000000000000060
  RELAENT              0x0000000000000018
  RELACOUNT            0x0000000000000004
  JMPREL               0x00000000000005f8
  PLTRELSZ             0x0000000000000120
  PLTGOT               0x0000000000065550
  PLTREL               0x0000000000000007
  SYMTAB               0x0000000000000358
  SYMENT               0x0000000000000018
  STRTAB               0x00000000000004ec
  STRSZ                0x00000000000000a5
  GNU_HASH             0x00000000000004d0
  PREINIT_ARRAY        0x0000000000065330
  PREINIT_ARRAYSZ      0x0000000000000010
  INIT_ARRAY           0x0000000000065340
  INIT_ARRAYSZ         0x0000000000000010
  FINI_ARRAY           0x0000000000065350
  FINI_ARRAYSZ         0x0000000000000010
  VERSYM               0x0000000000000490
  VERNEED              0x00000000000004ac
  VERNEEDNUM           0x0000000000000001

Version References:
  required from libc.so:
    0x00050d63 0x00 02 LIBC
private flags = 0x0:

Sections:
Idx Name          Size      VMA               LMA               File off  Algn
  0 .interp       00000015  00000000000002a8  00000000000002a8  000002a8  2**0
                  CONTENTS, ALLOC, LOAD, READONLY, DATA
  1 .note.android.ident 00000098  00000000000002c0  00000000000002c0  000002c0  2**2
                  CONTENTS, ALLOC, LOAD, READONLY, DATA
  2 .dynsym       00000138  0000000000000358  0000000000000358  00000358  2**3
                  CONTENTS, ALLOC, LOAD, READONLY, DATA
  3 .gnu.version  0000001a  0000000000000490  0000000000000490  00000490  2**1
                  CONTENTS, ALLOC, LOAD, READONLY, DATA
  4 .gnu.version_r 00000020  00000000000004ac  00000000000004ac  000004ac  2**2
                  CONTENTS, ALLOC, LOAD, READONLY, DATA
  5 .gnu.hash     0000001c  00000000000004d0  00000000000004d0  000004d0  2**3
                  CONTENTS, ALLOC, LOAD, READONLY, DATA
  6 .dynstr       000000a5  00000000000004ec  00000000000004ec  000004ec  2**0
                  CONTENTS, ALLOC, LOAD, READONLY, DATA
  7 .rela.dyn     00000060  0000000000000598  0000000000000598  00000598  2**3
                  CONTENTS, ALLOC, LOAD, READONLY, DATA
  8 .rela.plt     00000120  00000000000005f8  00000000000005f8  000005f8  2**3
                  CONTENTS, ALLOC, LOAD, READONLY, DATA
  9 .rodata       00060ad6  0000000000000718  0000000000000718  00000718  2**2
                  CONTENTS, ALLOC, LOAD, READONLY, DATA
 10 .eh_frame_hdr 000000dc  00000000000611f0  00000000000611f0  000611f0  2**2
                  CONTENTS, ALLOC, LOAD, READONLY, DATA
 11 .eh_frame     0000032c  00000000000612d0  00000000000612d0  000612d0  2**3
                  CONTENTS, ALLOC, LOAD, READONLY, DATA
 12 .text         00001c50  00000000000625fc  00000000000625fc  000615fc  2**2
                  CONTENTS, ALLOC, LOAD, READONLY, CODE
 13 .plt          000000e0  0000000000064250  0000000000064250  00063250  2**4
                  CONTENTS, ALLOC, LOAD, READONLY, CODE
 14 .preinit_array 00000010  0000000000065330  0000000000065330  00063330  2**3
                  CONTENTS, ALLOC, LOAD, DATA
 15 .init_array   00000010  0000000000065340  0000000000065340  00063340  2**3
                  CONTENTS, ALLOC, LOAD, DATA
 16 .fini_array   00000010  0000000000065350  0000000000065350  00063350  2**3
                  CONTENTS, ALLOC, LOAD, DATA
 17 .dynamic      000001d0  0000000000065360  0000000000065360  00063360  2**3
                  CONTENTS, ALLOC, LOAD, DATA
 18 .got          00000020  0000000000065530  0000000000065530  00063530  2**3
                  CONTENTS, ALLOC, LOAD, DATA
 19 .got.plt      00000078  0000000000065550  0000000000065550  00063550  2**3
                  CONTENTS, ALLOC, LOAD, DATA
 20 .bss          00001010  00000000000665c8  00000000000665c8  000635c8  2**3
                  ALLOC
 21 .comment      000000c7  0000000000000000  0000000000000000  000635c8  2**0
                  CONTENTS, READONLY
SYMBOL TABLE:
0000000000000000 l    df *ABS*	0000000000000000              crtbegin.c
0000000000062610 l     F .text	0000000000000044              _start_main
0000000000000318 l       .note.android.ident	0000000000000000              ndk_build_number
00000000000002d8 l       .note.android.ident	0000000000000000              ndk_version
00000000000002c0 l     O .note.android.ident	0000000000000098              note_android_ident
00000000000002d4 l       .note.android.ident	0000000000000000              note_data
0000000000000358 l       .note.android.ident	0000000000000000              note_end
00000000000002cc l       .note.android.ident	0000000000000000              note_name
0000000000062654 l     F .text	0000000000000014              .hidden __atexit_handler_wrapper
00000000000665c8 l     O .bss	0000000000000008              .hidden __dso_handle
0000000000062668 l     F .text	0000000000000020              .hidden atexit
0000000000062688 l     F .text	0000000000000010              .hidden pthread_atfork
0000000000000000 l    df *ABS*	0000000000000000              main.c
00000000000635e8 l     F .text	000000000000001c              clrscr
0000000000062744 l     F .text	000000000000009c              Confirm
0000000000062918 l     F .text	00000000000000fc              Message
0000000000062a14 l     F .text	0000000000000178              displayMenu
0000000000066dd4 l     O .bss	0000000000000800              Message.MESS
00000000000675d4 l     O .bss	0000000000000004              Message.num
000000000006346c l     F .text	0000000000000050              getTwoInputs
00000000000634bc l     F .text	0000000000000060              inInt
00000000000665d0 l     O .bss	0000000000000004              USED
0000000000063604 l     F .text	0000000000000378              Arrays_One
00000000000639dc l     F .text	0000000000000234              Arrays_Two
0000000000063c80 l     F .text	0000000000000214              Arrays_Three
0000000000063e94 l     F .text	0000000000000224              Arrays_Four
000000000006351c l     F .text	0000000000000060              Recursion_Factor
000000000006357c l     F .text	000000000000006c              Recursion_Fibonacci
000000000006397c l     F .text	0000000000000060              array_push
00000000000665d4 l     O .bss	0000000000000800              ARR
0000000000063c10 l     F .text	0000000000000070              array_print
00000000000640b8 l     F .text	00000000000000a0              array_reverse
0000000000064158 l     F .text	00000000000000f4              array_sort
00000000000612d0 l     O .eh_frame	0000000000000004              __FRAME_END__
0000000000065360 l       .dynamic	0000000000000000              .hidden _DYNAMIC
0000000000065350 g     O .fini_array	0000000000000008              __FINI_ARRAY__
0000000000065340 g     O .init_array	0000000000000008              __INIT_ARRAY__
0000000000065330 g     O .preinit_array	0000000000000008              __PREINIT_ARRAY__
0000000000000000       F *UND*	0000000000000000              __cxa_atexit
0000000000000000       F *UND*	0000000000000000              __libc_init
0000000000000000       F *UND*	0000000000000000              __register_atfork
00000000000625fc g     F .text	0000000000000014              _start
0000000000062698 g     F .text	00000000000000ac              main
0000000000000000       F *UND*	0000000000000000              printf
00000000000627e0 g     F .text	0000000000000138              mainMenu
0000000000000000       F *UND*	0000000000000000              scanf
0000000000000000       F *UND*	0000000000000000              memcpy
0000000000062b8c g     F .text	00000000000002ac              Arithmetic
0000000000062e38 g     F .text	000000000000018c              Arrays
0000000000062fc4 g     F .text	00000000000001ac              Recursion
0000000000063170 g     F .text	00000000000002fc              Strings
0000000000000000       F *UND*	0000000000000000              strcmp
0000000000000000       F *UND*	0000000000000000              memset
0000000000000000       F *UND*	0000000000000000              sprintf
0000000000000000       F *UND*	0000000000000000              strtol
0000000000000000       F *UND*	0000000000000000              strlen
0000000000000000       F *UND*	0000000000000000              system



Disassembly of section .interp:

00000000000002a8 <.interp>:
 2a8:	7379732f 	.inst	0x7379732f ; undefined
 2ac:	2f6d6574 	.inst	0x2f6d6574 ; undefined
 2b0:	2f6e6962 	umlsl	v2.4s, v11.4h, v14.h[6]
 2b4:	6b6e696c 	.inst	0x6b6e696c ; undefined
 2b8:	34367265 	cbz	w5, 6d104 <Message.num+0x5b30>
	...

Disassembly of section .note.android.ident:

00000000000002c0 <note_android_ident>:
 2c0:	00000008 	udf	#8
 2c4:	00000084 	udf	#132
 2c8:	00000001 	udf	#1

00000000000002cc <note_name>:
 2cc:	72646e41 	.inst	0x72646e41 ; undefined
 2d0:	0064696f 	.inst	0x0064696f ; undefined

00000000000002d4 <note_data>:
 2d4:	00000018 	udf	#24

00000000000002d8 <ndk_version>:
 2d8:	62333272 	.inst	0x62333272 ; undefined
	...

0000000000000318 <ndk_build_number>:
 318:	39373737 	strb	w23, [x25, #3533]
 31c:	00303236 	.inst	0x00303236 ; NYI
	...

Disassembly of section .dynsym:

0000000000000358 <.dynsym>:
	...
 370:	00000001 	udf	#1
 374:	00000012 	udf	#18
	...
 388:	0000000e 	udf	#14
 38c:	00000012 	udf	#18
	...
 3a0:	0000001a 	udf	#26
 3a4:	00000012 	udf	#18
	...
 3b8:	0000002c 	udf	#44
 3bc:	00000012 	udf	#18
	...
 3d0:	00000033 	udf	#51
 3d4:	00000012 	udf	#18
	...
 3e8:	00000039 	udf	#57
 3ec:	00000012 	udf	#18
	...
 400:	00000040 	udf	#64
 404:	00000012 	udf	#18
	...
 418:	00000047 	udf	#71
 41c:	00000012 	udf	#18
	...
 430:	0000004e 	udf	#78
 434:	00000012 	udf	#18
	...
 448:	00000056 	udf	#86
 44c:	00000012 	udf	#18
	...
 460:	0000005d 	udf	#93
 464:	00000012 	udf	#18
	...
 478:	00000064 	udf	#100
 47c:	00000012 	udf	#18
	...

Disassembly of section .gnu.version:

0000000000000490 <.gnu.version>:
 490:	00020000 	.inst	0x00020000 ; undefined
 494:	00020002 	.inst	0x00020002 ; undefined
 498:	00020002 	.inst	0x00020002 ; undefined
 49c:	00020002 	.inst	0x00020002 ; undefined
 4a0:	00020002 	.inst	0x00020002 ; undefined
 4a4:	00020002 	.inst	0x00020002 ; undefined
 4a8:	Address 0x00000000000004a8 is out of bounds.


Disassembly of section .gnu.version_r:

00000000000004ac <.gnu.version_r>:
 4ac:	00010001 	.inst	0x00010001 ; undefined
 4b0:	0000006b 	udf	#107
 4b4:	00000010 	udf	#16
 4b8:	00000000 	udf	#0
 4bc:	00050d63 	.inst	0x00050d63 ; undefined
 4c0:	00020000 	.inst	0x00020000 ; undefined
 4c4:	00000073 	udf	#115
 4c8:	00000000 	udf	#0

Disassembly of section .gnu.hash:

00000000000004d0 <.gnu.hash>:
 4d0:	00000001 	udf	#1
 4d4:	0000000d 	udf	#13
 4d8:	00000001 	udf	#1
 4dc:	0000001a 	udf	#26
	...

Disassembly of section .dynstr:

00000000000004ec <.dynstr>:
 4ec:	635f5f00 	.inst	0x635f5f00 ; undefined
 4f0:	615f6178 	.inst	0x615f6178 ; undefined
 4f4:	69786574 	ldpsw	x20, x25, [x11, #-64]
 4f8:	5f5f0074 	.inst	0x5f5f0074 ; undefined
 4fc:	6362696c 	.inst	0x6362696c ; undefined
 500:	696e695f 	ldpsw	xzr, x26, [x10, #-144]
 504:	5f5f0074 	.inst	0x5f5f0074 ; undefined
 508:	69676572 	ldpsw	x18, x25, [x11, #-200]
 50c:	72657473 	.inst	0x72657473 ; undefined
 510:	6674615f 	.inst	0x6674615f ; undefined
 514:	006b726f 	.inst	0x006b726f ; undefined
 518:	6e697270 	uabdl2	v16.4s, v19.8h, v9.8h
 51c:	73006674 	.inst	0x73006674 ; undefined
 520:	666e6163 	.inst	0x666e6163 ; undefined
 524:	6d656d00 	ldp	d0, d27, [x8, #-432]
 528:	00797063 	.inst	0x00797063 ; undefined
 52c:	63727473 	.inst	0x63727473 ; undefined
 530:	6d00706d 	stp	d13, d28, [x3]
 534:	65736d65 	fnmls	z5.h, p3/m, z11.h, z19.h
 538:	70730074 	adr	x20, e6547 <Message.num+0x7ef73>
 53c:	746e6972 	.inst	0x746e6972 ; undefined
 540:	74730066 	.inst	0x74730066 ; undefined
 544:	6c6f7472 	ldnp	d18, d29, [x3, #-272]
 548:	72747300 	.inst	0x72747300 ; undefined
 54c:	006e656c 	.inst	0x006e656c ; undefined
 550:	74737973 	.inst	0x74737973 ; undefined
 554:	6c006d65 	stnp	d5, d27, [x11]
 558:	2e636269 	rsubhn	v9.4h, v19.4s, v3.4s
 55c:	4c006f73 	st1	{v19.2d-v21.2d}, [x27]
 560:	00434249 	.inst	0x00434249 ; undefined
 564:	7461642f 	.inst	0x7461642f ; undefined
 568:	61642f61 	.inst	0x61642f61 ; undefined
 56c:	632f6174 	.inst	0x632f6174 ; undefined
 570:	742e6d6f 	.inst	0x742e6d6f ; undefined
 574:	756d7265 	.inst	0x756d7265 ; undefined
 578:	69662f78 	ldpsw	x24, x11, [x27, #-208]
 57c:	2f73656c 	.inst	0x2f73656c ; undefined
 580:	2f727375 	fcmla	v21.4h, v27.4h, v18.h[1], #270
 584:	0062696c 	.inst	0x0062696c ; undefined
 588:	6462696c 	.inst	0x6462696c ; undefined
 58c:	6f732e6c 	.inst	0x6f732e6c ; undefined
	...

Disassembly of section .rela.dyn:

0000000000000598 <.rela.dyn>:
 598:	00065530 	.inst	0x00065530 ; undefined
 59c:	00000000 	udf	#0
 5a0:	00000403 	udf	#1027
 5a4:	00000000 	udf	#0
 5a8:	00065350 	.inst	0x00065350 ; undefined
 5ac:	00000000 	udf	#0
 5b0:	00065538 	.inst	0x00065538 ; undefined
 5b4:	00000000 	udf	#0
 5b8:	00000403 	udf	#1027
 5bc:	00000000 	udf	#0
 5c0:	00065340 	.inst	0x00065340 ; undefined
 5c4:	00000000 	udf	#0
 5c8:	00065540 	.inst	0x00065540 ; undefined
 5cc:	00000000 	udf	#0
 5d0:	00000403 	udf	#1027
 5d4:	00000000 	udf	#0
 5d8:	00065330 	.inst	0x00065330 ; undefined
 5dc:	00000000 	udf	#0
 5e0:	00065548 	.inst	0x00065548 ; undefined
 5e4:	00000000 	udf	#0
 5e8:	00000403 	udf	#1027
 5ec:	00000000 	udf	#0
 5f0:	00062698 	.inst	0x00062698 ; undefined
 5f4:	00000000 	udf	#0

Disassembly of section .rela.plt:

00000000000005f8 <.rela.plt>:
 5f8:	00065568 	.inst	0x00065568 ; undefined
 5fc:	00000000 	udf	#0
 600:	00000402 	udf	#1026
 604:	00000001 	udf	#1
	...
 610:	00065570 	.inst	0x00065570 ; undefined
 614:	00000000 	udf	#0
 618:	00000402 	udf	#1026
 61c:	00000002 	udf	#2
	...
 628:	00065578 	.inst	0x00065578 ; undefined
 62c:	00000000 	udf	#0
 630:	00000402 	udf	#1026
 634:	00000003 	udf	#3
	...
 640:	00065580 	.inst	0x00065580 ; undefined
 644:	00000000 	udf	#0
 648:	00000402 	udf	#1026
 64c:	00000004 	udf	#4
	...
 658:	00065588 	.inst	0x00065588 ; undefined
 65c:	00000000 	udf	#0
 660:	00000402 	udf	#1026
 664:	00000005 	udf	#5
	...
 670:	00065590 	.inst	0x00065590 ; undefined
 674:	00000000 	udf	#0
 678:	00000402 	udf	#1026
 67c:	00000006 	udf	#6
	...
 688:	00065598 	.inst	0x00065598 ; undefined
 68c:	00000000 	udf	#0
 690:	00000402 	udf	#1026
 694:	00000007 	udf	#7
	...
 6a0:	000655a0 	.inst	0x000655a0 ; undefined
 6a4:	00000000 	udf	#0
 6a8:	00000402 	udf	#1026
 6ac:	00000008 	udf	#8
	...
 6b8:	000655a8 	.inst	0x000655a8 ; undefined
 6bc:	00000000 	udf	#0
 6c0:	00000402 	udf	#1026
 6c4:	00000009 	udf	#9
	...
 6d0:	000655b0 	.inst	0x000655b0 ; undefined
 6d4:	00000000 	udf	#0
 6d8:	00000402 	udf	#1026
 6dc:	0000000a 	udf	#10
	...
 6e8:	000655b8 	.inst	0x000655b8 ; undefined
 6ec:	00000000 	udf	#0
 6f0:	00000402 	udf	#1026
 6f4:	0000000b 	udf	#11
	...
 700:	000655c0 	.inst	0x000655c0 ; undefined
 704:	00000000 	udf	#0
 708:	00000402 	udf	#1026
 70c:	0000000c 	udf	#12
	...

Disassembly of section .rodata:

0000000000000718 <.rodata>:
     718:	00000010 	udf	#16
     71c:	00000070 	udf	#112
     720:	000000d0 	udf	#208
     724:	00000130 	udf	#304
     728:	00000190 	udf	#400
     72c:	00000208 	udf	#520
     730:	00000010 	udf	#16
     734:	00000028 	udf	#40
     738:	00000040 	udf	#64
     73c:	000000c8 	udf	#200
     740:	74697241 	.inst	0x74697241 ; undefined
     744:	74656d68 	.inst	0x74656d68 ; undefined
     748:	00006369 	udf	#25449
	...
     7c0:	61727241 	.inst	0x61727241 ; undefined
     7c4:	00000079 	udf	#121
	...
     840:	75636552 	.inst	0x75636552 ; undefined
     844:	6f697372 	fcmla	v18.8h, v27.8h, v9.h[1], #270
     848:	0000006e 	udf	#110
	...
     8c0:	69727453 	ldpsw	x19, x29, [x2, #-112]
     8c4:	0000676e 	udf	#26478
	...
     940:	20646e45 	.inst	0x20646e45 ; undefined
     944:	20656874 	.inst	0x20656874 ; undefined
     948:	676f7270 	.inst	0x676f7270 ; undefined
     94c:	006d6172 	.inst	0x006d6172 ; undefined
	...
   10740:	20646441 	.inst	0x20646441 ; undefined
   10744:	206f7774 	.inst	0x206f7774 ; undefined
   10748:	626d754e 	.inst	0x626d754e ; undefined
   1074c:	00737265 	.inst	0x00737265 ; undefined
	...
   107c0:	74627553 	.inst	0x74627553 ; undefined
   107c4:	74636172 	.inst	0x74636172 ; undefined
   107c8:	6f777420 	uqshl	v0.2d, v1.2d, #55
   107cc:	6d754e20 	ldp	d0, d19, [x17, #-176]
   107d0:	73726562 	.inst	0x73726562 ; undefined
	...
   10840:	746c754d 	.inst	0x746c754d ; undefined
   10844:	796c7069 	ldrh	w9, [x3, #5688]
   10848:	6f777420 	uqshl	v0.2d, v1.2d, #55
   1084c:	6d754e20 	ldp	d0, d19, [x17, #-176]
   10850:	73726562 	.inst	0x73726562 ; undefined
	...
   108c0:	69766944 	ldpsw	x4, x26, [x10, #-80]
   108c4:	74206564 	.inst	0x74206564 ; undefined
   108c8:	4e206f77 	smin	v23.16b, v27.16b, v0.16b
   108cc:	65626d75 	fnmls	z21.h, p3/m, z11.h, z2.h
   108d0:	00007372 	udf	#29554
	...
   10940:	20746547 	.inst	0x20746547 ; undefined
   10944:	20656874 	.inst	0x20656874 ; undefined
   10948:	61657241 	.inst	0x61657241 ; undefined
   1094c:	20666f20 	.inst	0x20666f20 ; undefined
   10950:	74636552 	.inst	0x74636552 ; undefined
   10954:	6c676e61 	ldnp	d1, d27, [x19, #-400]
   10958:	00000065 	udf	#101
	...
   109c0:	6b636142 	.inst	0x6b636142 ; undefined
	...
   20740:	00646441 	.inst	0x00646441 ; undefined
	...
   207c0:	74696445 	.inst	0x74696445 ; undefined
	...
   20840:	656c6544 	fnmls	z4.h, p1/m, z10.h, z12.h
   20844:	00006574 	udf	#25972
	...
   208c0:	6e697250 	uabdl2	v16.4s, v18.8h, v9.8h
   208c4:	00000074 	udf	#116
	...
   20940:	6b636142 	.inst	0x6b636142 ; undefined
	...
   30740:	646e6946 	.inst	0x646e6946 ; undefined
   30744:	63614620 	.inst	0x63614620 ; undefined
   30748:	73726f74 	.inst	0x73726f74 ; undefined
   3074c:	20666f20 	.inst	0x20666f20 ; undefined
   30750:	754e2061 	.inst	0x754e2061 ; undefined
   30754:	7265626d 	.inst	0x7265626d ; undefined
	...
   307c0:	646e6946 	.inst	0x646e6946 ; undefined
   307c4:	65687420 	fnmls	z0.h, p5/m, z1.h, z8.h
   307c8:	68746e20 	.inst	0x68746e20 ; undefined
   307cc:	72657420 	.inst	0x72657420 ; undefined
   307d0:	666f206d 	.inst	0x666f206d ; undefined
   307d4:	62694620 	.inst	0x62694620 ; undefined
   307d8:	63616e6f 	.inst	0x63616e6f ; undefined
   307dc:	00006963 	udf	#26979
	...
   30840:	6b636142 	.inst	0x6b636142 ; undefined
	...
   40740:	652d6552 	.inst	0x652d6552 ; undefined
   40744:	7265746e 	.inst	0x7265746e ; undefined
   40748:	72696620 	.inst	0x72696620 ; undefined
   4074c:	73207473 	.inst	0x73207473 ; undefined
   40750:	6e697274 	uabdl2	v20.4s, v19.8h, v9.8h
   40754:	00000067 	udf	#103
	...
   407c0:	706d6f43 	adr	x3, 11b5ab <Message.num+0xb3fd7>
   407c4:	20657261 	.inst	0x20657261 ; undefined
   407c8:	68746977 	.inst	0x68746977 ; undefined
   407cc:	6f6e6120 	umlsl2	v0.4s, v9.8h, v14.h[2]
   407d0:	72656874 	.inst	0x72656874 ; undefined
   407d4:	72747320 	.inst	0x72747320 ; undefined
   407d8:	00676e69 	.inst	0x00676e69 ; undefined
	...
   40840:	6b636142 	.inst	0x6b636142 ; undefined
	...
   50740:	6e697250 	uabdl2	v16.4s, v18.8h, v9.8h
   50744:	6e692074 	usubl2	v20.4s, v3.8h, v9.8h
   50748:	76655220 	.inst	0x76655220 ; undefined
   5074c:	65737265 	fnmls	z5.h, p4/m, z19.h, z19.h
	...
   507c0:	74726f53 	.inst	0x74726f53 ; undefined
   507c4:	646e6120 	.inst	0x646e6120 ; undefined
   507c8:	69725020 	ldpsw	x0, x20, [x1, #-112]
   507cc:	0000746e 	udf	#29806
	...
   50840:	65766153 	fnmls	z19.h, p0/m, z10.h, z22.h
   50844:	61686320 	.inst	0x61686320 ; undefined
   50848:	7365676e 	.inst	0x7365676e ; undefined
   5084c:	206f7420 	.inst	0x206f7420 ; undefined
   50850:	61746164 	.inst	0x61746164 ; undefined
   50854:	65736162 	fnmls	z2.h, p0/m, z11.h, z19.h
	...
   508c0:	6b636142 	.inst	0x6b636142 ; undefined
	...
   60740:	7e2a7e2a 	.inst	0x7e2a7e2a ; undefined
   60744:	7e2a7e2a 	.inst	0x7e2a7e2a ; undefined
   60748:	7e2a7e2a 	.inst	0x7e2a7e2a ; undefined
   6074c:	7e2a7e2a 	.inst	0x7e2a7e2a ; undefined
   60750:	7e2a7e2a 	.inst	0x7e2a7e2a ; undefined
   60754:	7e2a7e2a 	.inst	0x7e2a7e2a ; undefined
   60758:	7e2a7e2a 	.inst	0x7e2a7e2a ; undefined
   6075c:	7e2a7e2a 	.inst	0x7e2a7e2a ; undefined
   60760:	002a7e2a 	.inst	0x002a7e2a ; NYI
	...
   60780:	5e5b2520 	fcmeq	h0, h9, h27
   60784:	2a255d0a 	orn	w10, w8, w5, lsl #23
   60788:	73250063 	.inst	0x73250063 ; undefined
   6078c:	7274530a 	.inst	0x7274530a ; undefined
   60790:	20676e69 	.inst	0x20676e69 ; undefined
   60794:	656c2041 	fmls	z1.h, p0/m, z2.h, z12.h
   60798:	6874676e 	.inst	0x6874676e ; undefined
   6079c:	6425203a 	fmul	z26.h, z1.h, z5.h[0]
   607a0:	41000a0a 	.inst	0x41000a0a ; undefined
   607a4:	4e206464 	smax	v4.16b, v3.16b, v0.16b
   607a8:	56207765 	.inst	0x56207765 ; undefined
   607ac:	65756c61 	fnmls	z1.h, p3/m, z3.h, z21.h
   607b0:	540a000a 	b.ge	747b0 <Message.num+0xd1dc>  // b.tcont
   607b4:	736e6172 	.inst	0x736e6172 ; undefined
   607b8:	69746361 	ldpsw	x1, x24, [x27, #-96]
   607bc:	64206e6f 	.inst	0x64206e6f ; undefined
   607c0:	696c6365 	ldpsw	x5, x24, [x27, #-160]
   607c4:	2164656e 	.inst	0x2164656e ; undefined
   607c8:	7325000a 	.inst	0x7325000a ; undefined
   607cc:	2064250a 	.inst	0x2064250a ; undefined
   607d0:	20736168 	.inst	0x20736168 ; undefined
   607d4:	6e656562 	umax	v2.8h, v11.8h, v5.8h
   607d8:	70657220 	adr	x0, 12b61f <Message.num+0xc404b>
   607dc:	6563616c 	fnmls	z12.h, p0/m, z11.h, z3.h
   607e0:	69772064 	ldpsw	x4, x8, [x3, #-72]
   607e4:	25206874 	.inst	0x25206874 ; undefined
   607e8:	72662064 	.inst	0x72662064 ; undefined
   607ec:	69206d6f 	stgp	x15, x27, [x11, #-1024]
   607f0:	7865646e 	.inst	0x7865646e ; undefined
   607f4:	00642520 	.inst	0x00642520 ; undefined
   607f8:	746f4e0a 	.inst	0x746f4e0a ; undefined
   607fc:	676e6968 	.inst	0x676e6968 ; undefined
   60800:	206f7420 	.inst	0x206f7420 ; undefined
   60804:	6e697270 	uabdl2	v16.4s, v19.8h, v9.8h
   60808:	000a0a74 	.inst	0x000a0a74 ; undefined
   6080c:	206f440a 	.inst	0x206f440a ; undefined
   60810:	20756f79 	.inst	0x20756f79 ; undefined
   60814:	746e6177 	.inst	0x746e6177 ; undefined
   60818:	206f7420 	.inst	0x206f7420 ; undefined
   6081c:	636c6163 	.inst	0x636c6163 ; undefined
   60820:	74616c75 	.inst	0x74616c75 ; undefined
   60824:	67612065 	.inst	0x67612065 ; undefined
   60828:	3f6e6961 	.inst	0x3f6e6961 ; undefined
   6082c:	74754f00 	.inst	0x74754f00 ; undefined
   60830:	20666f20 	.inst	0x20666f20 ; undefined
   60834:	6f6d656d 	sqshlu	v13.2d, v11.2d, #45
   60838:	0a217972 	bic	w18, w11, w1, lsl #30
   6083c:	250a000a 	cmpge	p10.b, p0/z, z0.b, #10
   60840:	72724173 	.inst	0x72724173 ; undefined
   60844:	64207961 	.inst	0x64207961 ; undefined
   60848:	62617461 	.inst	0x62617461 ; undefined
   6084c:	20657361 	.inst	0x20657361 ; undefined
   60850:	20736168 	.inst	0x20736168 ; undefined
   60854:	6e656562 	umax	v2.8h, v11.8h, v5.8h
   60858:	61686320 	.inst	0x61686320 ; undefined
   6085c:	2e65676e 	umax	v14.4h, v27.4h, v5.4h
   60860:	6857000a 	.inst	0x6857000a ; undefined
   60864:	20686369 	.inst	0x20686369 ; undefined
   60868:	676f7270 	.inst	0x676f7270 ; undefined
   6086c:	206d6172 	.inst	0x206d6172 ; undefined
   60870:	20756f79 	.inst	0x20756f79 ; undefined
   60874:	68736977 	.inst	0x68736977 ; undefined
   60878:	206f7420 	.inst	0x206f7420 ; undefined
   6087c:	3a6e7572 	.inst	0x3a6e7572 ; undefined
   60880:	250a0020 	cmpge	p0.b, p0/z, z1.b, #10
   60884:	595b2073 	ldapurh	w19, [x3, #-78]
   60888:	3a5d4e2f 	.inst	0x3a5d4e2f ; undefined
   6088c:	440a0020 	.inst	0x440a0020 ; undefined
   60890:	6f79206f 	umlal2	v15.4s, v3.8h, v9.h[3]
   60894:	61772075 	.inst	0x61772075 ; undefined
   60898:	7420746e 	.inst	0x7420746e ; undefined
   6089c:	6964206f 	ldpsw	x15, x8, [x3, #-224]
   608a0:	65646976 	fnmls	z22.h, p2/m, z11.h, z4.h
   608a4:	6f777420 	uqshl	v0.2d, v1.2d, #55
   608a8:	6d756e20 	ldp	d0, d27, [x17, #-176]
   608ac:	73726562 	.inst	0x73726562 ; undefined
   608b0:	61676120 	.inst	0x61676120 ; undefined
   608b4:	003f6e69 	.inst	0x003f6e69 ; NYI
   608b8:	656c6544 	fnmls	z4.h, p1/m, z10.h, z12.h
   608bc:	76206574 	.inst	0x76206574 ; undefined
   608c0:	65756c61 	fnmls	z1.h, p3/m, z3.h, z21.h
   608c4:	6f726620 	sqshlu	v0.2d, v17.2d, #50
   608c8:	7261206d 	.inst	0x7261206d ; undefined
   608cc:	2e796172 	rsubhn	v18.4h, v11.4s, v25.4s
   608d0:	6553000a 	fadd	z10.h, z0.h, z19.h
   608d4:	7463656c 	.inst	0x7463656c ; undefined
   608d8:	6e206120 	rsubhn2	v0.16b, v9.8h, v0.8h
   608dc:	65626d75 	fnmls	z21.h, p3/m, z11.h, z2.h
   608e0:	72662072 	.inst	0x72662072 ; undefined
   608e4:	67206d6f 	.inst	0x67206d6f ; undefined
   608e8:	6e657669 	uabd	v9.8h, v19.8h, v5.8h
   608ec:	73696c20 	.inst	0x73696c20 ; undefined
   608f0:	00203a74 	.inst	0x00203a74 ; NYI
   608f4:	206f440a 	.inst	0x206f440a ; undefined
   608f8:	20756f59 	.inst	0x20756f59 ; undefined
   608fc:	746e6177 	.inst	0x746e6177 ; undefined
   60900:	206f7420 	.inst	0x206f7420 ; undefined
   60904:	20646461 	.inst	0x20646461 ; undefined
   60908:	206f7774 	.inst	0x206f7774 ; undefined
   6090c:	626d756e 	.inst	0x626d756e ; undefined
   60910:	20737265 	.inst	0x20737265 ; undefined
   60914:	69616761 	ldpsw	x1, x25, [x27, #-248]
   60918:	45003f6e 	.inst	0x45003f6e ; undefined
   6091c:	7265746e 	.inst	0x7265746e ; undefined
   60920:	63657320 	.inst	0x63657320 ; undefined
   60924:	20646e6f 	.inst	0x20646e6f ; undefined
   60928:	626d756e 	.inst	0x626d756e ; undefined
   6092c:	203a7265 	.inst	0x203a7265 ; undefined
   60930:	59732500 	.inst	0x59732500 ; undefined
   60934:	6f20756f 	uqshl	v15.4s, v11.4s, #0
   60938:	20796c6e 	.inst	0x20796c6e ; undefined
   6093c:	65766168 	fnmls	z8.h, p0/m, z11.h, z22.h
   60940:	20642520 	.inst	0x20642520 ; undefined
   60944:	2074756f 	.inst	0x2074756f ; undefined
   60948:	2520666f 	.inst	0x2520666f ; undefined
   6094c:	656c2064 	fmls	z4.h, p0/m, z3.h, z12.h
   60950:	73207466 	.inst	0x73207466 ; undefined
   60954:	65636170 	fnmls	z16.h, p0/m, z11.h, z3.h
   60958:	41000a21 	.inst	0x41000a21 ; undefined
   6095c:	79206572 	strh	w18, [x11, #4146]
   60960:	7320756f 	.inst	0x7320756f ; undefined
   60964:	20657275 	.inst	0x20657275 ; undefined
   60968:	73206f74 	.inst	0x73206f74 ; undefined
   6096c:	20657661 	.inst	0x20657661 ; undefined
   60970:	6e616863 	fcvtxn2	v3.4s, v3.2d
   60974:	20736567 	.inst	0x20736567 ; undefined
   60978:	64206f74 	.inst	0x64206f74 ; undefined
   6097c:	62617461 	.inst	0x62617461 ; undefined
   60980:	3f657361 	.inst	0x3f657361 ; undefined
   60984:	6f6f4700 	sri	v0.2d, v24.2d, #17
   60988:	65796264 	fnmls	z4.h, p0/m, z19.h, z25.h
   6098c:	000a0a21 	.inst	0x000a0a21 ; undefined
   60990:	c3206425 	.inst	0xc3206425 ; undefined
   60994:	642520b7 	fmul	z23.h, z5.h, z5.h[0]
   60998:	25203d20 	.inst	0x25203d20 ; undefined
   6099c:	73250064 	.inst	0x73250064 ; undefined
   609a0:	72745300 	.inst	0x72745300 ; undefined
   609a4:	20676e69 	.inst	0x20676e69 ; undefined
   609a8:	656c2041 	fmls	z1.h, p0/m, z2.h, z12.h
   609ac:	6874676e 	.inst	0x6874676e ; undefined
   609b0:	6425203a 	fmul	z26.h, z1.h, z5.h[0]
   609b4:	49000a0a 	.inst	0x49000a0a ; undefined
   609b8:	61732073 	.inst	0x61732073 ; undefined
   609bc:	7720656d 	.inst	0x7720656d ; undefined
   609c0:	20687469 	.inst	0x20687469 ; undefined
   609c4:	746f6e61 	.inst	0x746f6e61 ; undefined
   609c8:	20726568 	.inst	0x20726568 ; undefined
   609cc:	69727473 	ldpsw	x19, x29, [x3, #-112]
   609d0:	203f676e 	.inst	0x203f676e ; undefined
   609d4:	7325203a 	.inst	0x7325203a ; undefined
   609d8:	53000a0a 	ubfx	w10, w16, #0, #3
   609dc:	72746275 	.inst	0x72746275 ; undefined
   609e0:	20746361 	.inst	0x20746361 ; undefined
   609e4:	206f7774 	.inst	0x206f7774 ; undefined
   609e8:	626d756e 	.inst	0x626d756e ; undefined
   609ec:	0a737265 	bic	w5, w19, w19, lsr #28
   609f0:	6c754d00 	ldnp	d0, d19, [x8, #-176]
   609f4:	6c706974 	ldnp	d20, d26, [x11, #-256]
   609f8:	77742079 	.inst	0x77742079 ; undefined
   609fc:	756e206f 	.inst	0x756e206f ; undefined
   60a00:	7265626d 	.inst	0x7265626d ; undefined
   60a04:	47000a73 	.inst	0x47000a73 ; undefined
   60a08:	74207465 	.inst	0x74207465 ; undefined
   60a0c:	41206568 	.inst	0x41206568 ; undefined
   60a10:	20616572 	.inst	0x20616572 ; undefined
   60a14:	6120666f 	.inst	0x6120666f ; undefined
   60a18:	63655220 	.inst	0x63655220 ; undefined
   60a1c:	676e6174 	.inst	0x676e6174 ; undefined
   60a20:	000a656c 	.inst	0x000a656c ; undefined
   60a24:	6968570a 	ldpsw	x10, x21, [x24, #-192]
   60a28:	69206863 	stgp	x3, x26, [x3, #-1024]
   60a2c:	7865646e 	.inst	0x7865646e ; undefined
   60a30:	756f7920 	.inst	0x756f7920 ; undefined
   60a34:	73697720 	.inst	0x73697720 ; undefined
   60a38:	6f742068 	umlal2	v8.4s, v3.8h, v4.h[3]
   60a3c:	69646520 	ldpsw	x0, x25, [x9, #-224]
   60a40:	0a2e3f74 	bic	w20, w27, w14, lsl #15
   60a44:	65746e45 	fnmls	z5.h, p3/m, z18.h, z20.h
   60a48:	20302072 	.inst	0x20302072 ; undefined
   60a4c:	63206f74 	.inst	0x63206f74 ; undefined
   60a50:	65636e61 	fnmls	z1.h, p3/m, z19.h, z3.h
   60a54:	4e0a2e6c 	smov	x12, v19.h[2]
   60a58:	65626d75 	fnmls	z21.h, p3/m, z11.h, z2.h
   60a5c:	00203a72 	.inst	0x00203a72 ; NYI
   60a60:	73332520 	.inst	0x73332520 ; undefined
   60a64:	62694600 	.inst	0x62694600 ; undefined
   60a68:	63616e6f 	.inst	0x63616e6f ; undefined
   60a6c:	53206963 	.inst	0x53206963 ; undefined
   60a70:	65757165 	fnmls	z5.h, p4/m, z11.h, z21.h
   60a74:	3a65636e 	.inst	0x3a65636e ; undefined
   60a78:	646c2520 	.inst	0x646c2520 ; undefined
   60a7c:	6e45000a 	.inst	0x6e45000a ; undefined
   60a80:	20726574 	.inst	0x20726574 ; undefined
   60a84:	74732061 	.inst	0x74732061 ; undefined
   60a88:	676e6972 	.inst	0x676e6972 ; undefined
   60a8c:	61687420 	.inst	0x61687420 ; undefined
   60a90:	6f772074 	umlal2	v20.4s, v3.8h, v7.h[3]
   60a94:	20646c75 	.inst	0x20646c75 ; undefined
   60a98:	20746f6e 	.inst	0x20746f6e ; undefined
   60a9c:	65637865 	fnmls	z5.h, p6/m, z3.h, z3.h
   60aa0:	64656465 	.inst	0x64656465 ; undefined
   60aa4:	206f7420 	.inst	0x206f7420 ; undefined
   60aa8:	20383231 	.inst	0x20383231 ; undefined
   60aac:	72616863 	.inst	0x72616863 ; undefined
   60ab0:	65746361 	fnmls	z1.h, p0/m, z27.h, z20.h
   60ab4:	002e7372 	.inst	0x002e7372 ; NYI
   60ab8:	20656854 	.inst	0x20656854 ; undefined
   60abc:	61657241 	.inst	0x61657241 ; undefined
   60ac0:	20666f20 	.inst	0x20666f20 ; undefined
   60ac4:	65722061 	fmls	z1.h, p0/m, z3.h, z18.h
   60ac8:	6e617463 	uabd	v3.8h, v3.8h, v1.8h
   60acc:	20656c67 	.inst	0x20656c67 ; undefined
   60ad0:	25207369 	.inst	0x25207369 ; undefined
   60ad4:	540a0064 	b.mi	74ae0 <Message.num+0xd50c>  // b.first
   60ad8:	63206568 	.inst	0x63206568 ; undefined
   60adc:	65727275 	fnmls	z21.h, p4/m, z19.h, z18.h
   60ae0:	6d20746e 	stp	d14, d29, [x3, #-512]
   60ae4:	73207861 	.inst	0x73207861 ; undefined
   60ae8:	20657a69 	.inst	0x20657a69 ; undefined
   60aec:	4420666f 	.inst	0x4420666f ; undefined
   60af0:	62617461 	.inst	0x62617461 ; undefined
   60af4:	20657361 	.inst	0x20657361 ; undefined
   60af8:	61727241 	.inst	0x61727241 ; undefined
   60afc:	73692079 	.inst	0x73692079 ; undefined
   60b00:	0a642520 	bic	w0, w9, w4, lsr #9
   60b04:	20642500 	.inst	0x20642500 ; undefined
   60b08:	252097c3 	.inst	0x252097c3 ; undefined
   60b0c:	203d2064 	.inst	0x203d2064 ; undefined
   60b10:	4e006425 	.inst	0x4e006425 ; undefined
   60b14:	65626d75 	fnmls	z21.h, p3/m, z11.h, z2.h
   60b18:	00203a72 	.inst	0x00203a72 ; NYI
   60b1c:	746e450a 	.inst	0x746e450a ; undefined
   60b20:	30207265 	adr	x5, a196d <Message.num+0x3a399>
   60b24:	206f7420 	.inst	0x206f7420 ; undefined
   60b28:	6b636162 	.inst	0x6b636162 ; undefined
   60b2c:	0a00203a 	and	w26, w1, w0, lsl #8
   60b30:	65746e45 	fnmls	z5.h, p3/m, z18.h, z20.h
   60b34:	20302072 	.inst	0x20302072 ; undefined
   60b38:	63206f74 	.inst	0x63206f74 ; undefined
   60b3c:	65636e61 	fnmls	z1.h, p3/m, z19.h, z3.h
   60b40:	46002e6c 	.inst	0x46002e6c ; undefined
   60b44:	65736c61 	fnmls	z1.h, p3/m, z3.h, z19.h
   60b48:	746e4500 	.inst	0x746e4500 ; undefined
   60b4c:	61207265 	.inst	0x61207265 ; undefined
   60b50:	6d756e20 	ldp	d0, d27, [x17, #-176]
   60b54:	20726562 	.inst	0x20726562 ; undefined
   60b58:	20756f79 	.inst	0x20756f79 ; undefined
   60b5c:	68736977 	.inst	0x68736977 ; undefined
   60b60:	206f7420 	.inst	0x206f7420 ; undefined
   60b64:	20646461 	.inst	0x20646461 ; undefined
   60b68:	6e656874 	.inst	0x6e656874 ; undefined
   60b6c:	746e6520 	.inst	0x746e6520 ; undefined
   60b70:	0a2e7265 	bic	w5, w19, w14, lsl #28
   60b74:	206f4400 	.inst	0x206f4400 ; undefined
   60b78:	20756f59 	.inst	0x20756f59 ; undefined
   60b7c:	746e6157 	.inst	0x746e6157 ; undefined
   60b80:	206f7420 	.inst	0x206f7420 ; undefined
   60b84:	746e6f43 	.inst	0x746e6f43 ; undefined
   60b88:	65756e69 	fnmls	z9.h, p3/m, z19.h, z21.h
   60b8c:	6854003f 	.inst	0x6854003f ; undefined
   60b90:	736b6e61 	.inst	0x736b6e61 ; undefined
   60b94:	726f6620 	.inst	0x726f6620 ; undefined
   60b98:	69737520 	ldpsw	x0, x29, [x9, #-104]
   60b9c:	6f20676e 	sqshlu	v14.4s, v27.4s, #0
   60ba0:	70207275 	adr	x21, a19ef <Message.num+0x3a41b>
   60ba4:	72676f72 	.inst	0x72676f72 ; undefined
   60ba8:	0a216d61 	bic	w1, w11, w1, lsl #27
   60bac:	450a000a 	.inst	0x450a000a ; undefined
   60bb0:	7265746e 	.inst	0x7265746e ; undefined
   60bb4:	77656e20 	.inst	0x77656e20 ; undefined
   60bb8:	6c617620 	ldnp	d0, d29, [x17, #-496]
   60bbc:	66206575 	.inst	0x66206575 ; undefined
   60bc0:	6720726f 	.inst	0x6720726f ; undefined
   60bc4:	6e657669 	uabd	v9.8h, v19.8h, v5.8h
   60bc8:	646e6920 	.inst	0x646e6920 ; undefined
   60bcc:	0a2e7865 	bic	w5, w3, w14, lsl #30
   60bd0:	626d754e 	.inst	0x626d754e ; undefined
   60bd4:	203a7265 	.inst	0x203a7265 ; undefined
   60bd8:	64644100 	bfdot	z0.s, z8.h, z4.h[0]
   60bdc:	6f777420 	uqshl	v0.2d, v1.2d, #55
   60be0:	6d754e20 	ldp	d0, d19, [x17, #-176]
   60be4:	73726562 	.inst	0x73726562 ; undefined
   60be8:	6f44000a 	mla	v10.8h, v0.8h, v4.h[0]
   60bec:	756f7920 	.inst	0x756f7920 ; undefined
   60bf0:	6e617720 	uabd	v0.8h, v25.8h, v1.8h
   60bf4:	6f742074 	umlal2	v20.4s, v3.8h, v4.h[3]
   60bf8:	6e616320 	rsubhn2	v0.8h, v25.4s, v1.4s
   60bfc:	206c6563 	.inst	0x206c6563 ; undefined
   60c00:	73696874 	.inst	0x73696874 ; undefined
   60c04:	61727420 	.inst	0x61727420 ; undefined
   60c08:	6361736e 	.inst	0x6361736e ; undefined
   60c0c:	6e6f6974 	.inst	0x6e6f6974 ; undefined
   60c10:	654e003f 	fadd	z31.h, z1.h, z14.h
   60c14:	20796c77 	.inst	0x20796c77 ; undefined
   60c18:	65646461 	fnmls	z1.h, p1/m, z3.h, z4.h
   60c1c:	61762064 	.inst	0x61762064 ; undefined
   60c20:	3a65756c 	.inst	0x3a65756c ; undefined
   60c24:	0a732520 	bic	w0, w9, w19, lsr #9
   60c28:	0a003000 	and	w0, w0, w0, lsl #12
   60c2c:	2d206425 	stp	s5, s25, [x1, #-256]
   60c30:	6425203e 	fmul	z30.h, z1.h, z5.h[0]
   60c34:	31252000 	adds	w0, w0, #0x948
   60c38:	65570063 	fadd	z3.h, z3.h, z23.h
   60c3c:	6d6f636c 	ldp	d12, d24, [x27, #-272]
   60c40:	73552065 	.inst	0x73552065 ; undefined
   60c44:	0a217265 	bic	w5, w19, w1, lsl #28
   60c48:	20642500 	.inst	0x20642500 ; undefined
   60c4c:	6425202d 	fmul	z13.h, z1.h, z5.h[0]
   60c50:	25203d20 	.inst	0x25203d20 ; undefined
   60c54:	69440064 	ldpsw	x4, x0, [x3, #32]
   60c58:	65646976 	fnmls	z22.h, p2/m, z11.h, z4.h
   60c5c:	6f777420 	uqshl	v0.2d, v1.2d, #55
   60c60:	6d756e20 	ldp	d0, d27, [x17, #-176]
   60c64:	73726562 	.inst	0x73726562 ; undefined
   60c68:	6e45000a 	.inst	0x6e45000a ; undefined
   60c6c:	20726574 	.inst	0x20726574 ; undefined
   60c70:	73726966 	.inst	0x73726966 ; undefined
   60c74:	756e2074 	.inst	0x756e2074 ; undefined
   60c78:	7265626d 	.inst	0x7265626d ; undefined
   60c7c:	6300203a 	.inst	0x6300203a ; undefined
   60c80:	7261656c 	.inst	0x7261656c ; undefined
   60c84:	6d6f5300 	ldp	d0, d20, [x24, #-272]
   60c88:	61642065 	.inst	0x61642065 ; undefined
   60c8c:	68206174 	.inst	0x68206174 ; undefined
   60c90:	6e207361 	uabdl2	v1.8h, v27.16b, v0.16b
   60c94:	6220746f 	.inst	0x6220746f ; undefined
   60c98:	206e6565 	.inst	0x206e6565 ; undefined
   60c9c:	726f7473 	.inst	0x726f7473 ; undefined
   60ca0:	202e6465 	.inst	0x202e6465 ; undefined
   60ca4:	61746144 	.inst	0x61746144 ; undefined
   60ca8:	746e6520 	.inst	0x746e6520 ; undefined
   60cac:	64657265 	.inst	0x64657265 ; undefined
   60cb0:	7325203a 	.inst	0x7325203a ; undefined
   60cb4:	6544000a 	fadd	z10.h, z0.h, z4.h
   60cb8:	6574656c 	fnmls	z12.h, p1/m, z11.h, z20.h
   60cbc:	20726f20 	.inst	0x20726f20 ; undefined
   60cc0:	74696445 	.inst	0x74696445 ; undefined
   60cc4:	6d6f7320 	ldp	d0, d28, [x25, #-272]
   60cc8:	61642065 	.inst	0x61642065 ; undefined
   60ccc:	000a6174 	.inst	0x000a6174 ; undefined
   60cd0:	636c6557 	.inst	0x636c6557 ; undefined
   60cd4:	20656d6f 	.inst	0x20656d6f ; undefined
   60cd8:	53206f74 	.inst	0x53206f74 ; undefined
   60cdc:	6e697274 	uabdl2	v20.4s, v19.8h, v9.8h
   60ce0:	6f572067 	umlal2	v7.4s, v3.8h, v7.h[1]
   60ce4:	21646c72 	.inst	0x21646c72 ; undefined
   60ce8:	2520000a 	whilege	p10.b, w0, w0
   60cec:	0a007337 	and	w23, w25, w0, lsl #28
   60cf0:	68746947 	.inst	0x68746947 ; undefined
   60cf4:	55206275 	.inst	0x55206275 ; undefined
   60cf8:	6e726573 	umax	v19.8h, v11.8h, v18.8h
   60cfc:	3a656d61 	.inst	0x3a656d61 ; undefined
   60d00:	6d786a20 	ldp	d0, d26, [x17, #-128]
   60d04:	0a64656b 	bic	w11, w11, w4, lsr #25
   60d08:	6c632b00 	ldnp	d0, d10, [x24, #-464]
   60d0c:	00726165 	.inst	0x00726165 ; undefined
   60d10:	756c6156 	.inst	0x756c6156 ; undefined
   60d14:	64252065 	fmul	z5.h, z3.h, z5.h[0]
   60d18:	73616820 	.inst	0x73616820 ; undefined
   60d1c:	65656220 	fnmls	z0.h, p0/m, z17.h, z5.h
   60d20:	6564206e 	fmls	z14.h, p0/m, z3.h, z4.h
   60d24:	6574656c 	fnmls	z12.h, p1/m, z11.h, z20.h
   60d28:	000a2164 	.inst	0x000a2164 ; undefined
   60d2c:	203a6425 	.inst	0x203a6425 ; undefined
   60d30:	000a7325 	.inst	0x000a7325 ; undefined
   60d34:	636c6557 	.inst	0x636c6557 ; undefined
   60d38:	20656d6f 	.inst	0x20656d6f ; undefined
   60d3c:	41206f74 	.inst	0x41206f74 ; undefined
   60d40:	68746972 	.inst	0x68746972 ; undefined
   60d44:	6974656d 	ldpsw	x13, x25, [x11, #-96]
   60d48:	6f572063 	umlal2	v3.4s, v3.8h, v7.h[1]
   60d4c:	0a646c72 	bic	w18, w3, w4, lsr #27
   60d50:	6e694600 	ushl	v0.8h, v16.8h, v9.8h
   60d54:	61662064 	.inst	0x61662064 ; undefined
   60d58:	726f7463 	.inst	0x726f7463 ; undefined
   60d5c:	666f2073 	.inst	0x666f2073 ; undefined
   60d60:	6e206120 	rsubhn2	v0.16b, v9.8h, v0.8h
   60d64:	65626d75 	fnmls	z21.h, p3/m, z11.h, z2.h
   60d68:	0a000a72 	and	w18, w19, w0, lsl #2
   60d6c:	68746f4e 	.inst	0x68746f4e ; undefined
   60d70:	20676e69 	.inst	0x20676e69 ; undefined
   60d74:	65206f74 	.inst	0x65206f74 ; undefined
   60d78:	0a746964 	bic	w4, w11, w20, lsr #26
   60d7c:	6e45000a 	.inst	0x6e45000a ; undefined
   60d80:	20726574 	.inst	0x20726574 ; undefined
   60d84:	20656874 	.inst	0x20656874 ; undefined
   60d88:	74646977 	.inst	0x74646977 ; undefined
   60d8c:	666f2068 	.inst	0x666f2068 ; undefined
   60d90:	72206120 	ands	w0, w9, #0x1ffffff
   60d94:	61746365 	.inst	0x61746365 ; undefined
   60d98:	656c676e 	fnmls	z14.h, p1/m, z27.h, z12.h
   60d9c:	2500203a 	cmple	p10.b, p0/z, z1.b, #0
   60da0:	2c642573 	ldnp	s19, s9, [x11, #-224]
   60da4:	72410020 	.inst	0x72410020 ; undefined
   60da8:	6f792065 	umlal2	v5.4s, v3.8h, v9.h[3]
   60dac:	75732075 	.inst	0x75732075 ; undefined
   60db0:	74206572 	.inst	0x74206572 ; undefined
   60db4:	6572206f 	fmls	z15.h, p0/m, z3.h, z18.h
   60db8:	63616c70 	.inst	0x63616c70 ; undefined
   60dbc:	64252065 	fmul	z5.h, z3.h, z5.h[0]
   60dc0:	74697720 	.inst	0x74697720 ; undefined
   60dc4:	64252068 	fmul	z8.h, z3.h, z5.h[0]
   60dc8:	6f726620 	sqshlu	v0.2d, v17.2d, #50
   60dcc:	6e69206d 	usubl2	v13.4s, v3.8h, v9.8h
   60dd0:	3f786564 	.inst	0x3f786564 ; undefined
   60dd4:	68570a00 	.inst	0x68570a00 ; undefined
   60dd8:	20686369 	.inst	0x20686369 ; undefined
   60ddc:	65646e69 	fnmls	z9.h, p3/m, z19.h, z4.h
   60de0:	6f792078 	umlal2	v24.4s, v3.8h, v9.h[3]
   60de4:	69772075 	ldpsw	x21, x8, [x3, #-72]
   60de8:	74206873 	.inst	0x74206873 ; undefined
   60dec:	6564206f 	fmls	z15.h, p0/m, z3.h, z4.h
   60df0:	6574656c 	fnmls	z12.h, p1/m, z11.h, z20.h
   60df4:	6e450a3f 	.inst	0x6e450a3f ; undefined
   60df8:	20726574 	.inst	0x20726574 ; undefined
   60dfc:	6f742030 	umlal2	v16.4s, v1.8h, v4.h[3]
   60e00:	6e616320 	rsubhn2	v0.8h, v25.4s, v1.4s
   60e04:	2e6c6563 	umax	v3.4h, v11.4h, v12.4h
   60e08:	6d754e0a 	ldp	d10, d19, [x16, #-176]
   60e0c:	3a726562 	.inst	0x3a726562 ; undefined
   60e10:	65570020 	fadd	z0.h, z1.h, z23.h
   60e14:	6d6f636c 	ldp	d12, d24, [x27, #-272]
   60e18:	43202165 	.inst	0x43202165 ; undefined
   60e1c:	736f6f68 	.inst	0x736f6f68 ; undefined
   60e20:	20612065 	.inst	0x20612065 ; undefined
   60e24:	676f7270 	.inst	0x676f7270 ; undefined
   60e28:	206d6172 	.inst	0x206d6172 ; undefined
   60e2c:	72206f74 	ands	w20, w27, #0xfffffff
   60e30:	0a2e6e75 	bic	w21, w19, w14, lsl #27
   60e34:	2e6f4e00 	uqshl	v0.4h, v16.4h, v15.4h
   60e38:	20642520 	.inst	0x20642520 ; undefined
   60e3c:	754e202d 	.inst	0x754e202d ; undefined
   60e40:	7265626d 	.inst	0x7265626d ; undefined
   60e44:	754f003a 	.inst	0x754f003a ; undefined
   60e48:	666f2074 	.inst	0x666f2074 ; undefined
   60e4c:	646e6920 	.inst	0x646e6920 ; undefined
   60e50:	00217865 	.inst	0x00217865 ; NYI
   60e54:	6172540a 	.inst	0x6172540a ; undefined
   60e58:	6361736e 	.inst	0x6361736e ; undefined
   60e5c:	6e6f6974 	.inst	0x6e6f6974 ; undefined
   60e60:	6e616320 	rsubhn2	v0.8h, v25.4s, v1.4s
   60e64:	6c6c6563 	ldnp	d3, d25, [x11, #-320]
   60e68:	0a216465 	bic	w5, w3, w1, lsl #25
   60e6c:	45000a00 	.inst	0x45000a00 ; undefined
   60e70:	7265746e 	.inst	0x7265746e ; undefined
   60e74:	65687420 	fnmls	z0.h, p5/m, z1.h, z8.h
   60e78:	69656820 	ldpsw	x0, x26, [x1, #-216]
   60e7c:	20746867 	.inst	0x20746867 ; undefined
   60e80:	6120666f 	.inst	0x6120666f ; undefined
   60e84:	63657220 	.inst	0x63657220 ; undefined
   60e88:	676e6174 	.inst	0x676e6174 ; undefined
   60e8c:	203a656c 	.inst	0x203a656c ; undefined
   60e90:	6c655700 	ldnp	d0, d21, [x24, #-432]
   60e94:	656d6f63 	fnmls	z3.h, p3/m, z27.h, z13.h
   60e98:	206f7420 	.inst	0x206f7420 ; undefined
   60e9c:	61727241 	.inst	0x61727241 ; undefined
   60ea0:	6f572079 	umlal2	v25.4s, v3.8h, v7.h[1]
   60ea4:	0a646c72 	bic	w18, w3, w4, lsr #27
   60ea8:	746e4500 	.inst	0x746e4500 ; undefined
   60eac:	61207265 	.inst	0x61207265 ; undefined
   60eb0:	6d756e20 	ldp	d0, d27, [x17, #-176]
   60eb4:	20726562 	.inst	0x20726562 ; undefined
   60eb8:	66206f74 	.inst	0x66206f74 ; undefined
   60ebc:	20646e69 	.inst	0x20646e69 ; undefined
   60ec0:	20737469 	.inst	0x20737469 ; undefined
   60ec4:	74636166 	.inst	0x74636166 ; undefined
   60ec8:	2e73726f 	uabdl	v15.4s, v19.4h, v19.4h
   60ecc:	746e450a 	.inst	0x746e450a ; undefined
   60ed0:	30207265 	adr	x5, a1d1d <Message.num+0x3a749>
   60ed4:	206f7420 	.inst	0x206f7420 ; undefined
   60ed8:	6b636162 	.inst	0x6b636162 ; undefined
   60edc:	5400203a 	bc.ge	612e0 <__FRAME_END__+0x10>  // bc.tcont
   60ee0:	00657572 	.inst	0x00657572 ; undefined
   60ee4:	2b206425 	adds	w5, w1, w0, uxtx #1
   60ee8:	20642520 	.inst	0x20642520 ; undefined
   60eec:	6425203d 	fmul	z29.h, z1.h, z5.h[0]
   60ef0:	6f440a00 	mla	v0.8h, v16.8h, v4.h[4]
   60ef4:	756f7920 	.inst	0x756f7920 ; undefined
   60ef8:	6e617720 	uabd	v0.8h, v25.8h, v1.8h
   60efc:	6f742074 	umlal2	v20.4s, v3.8h, v4.h[3]
   60f00:	62757320 	.inst	0x62757320 ; undefined
   60f04:	63617274 	.inst	0x63617274 ; undefined
   60f08:	77742074 	.inst	0x77742074 ; undefined
   60f0c:	756e206f 	.inst	0x756e206f ; undefined
   60f10:	7272626d 	.inst	0x7272626d ; undefined
   60f14:	67612073 	.inst	0x67612073 ; undefined
   60f18:	3f6e6961 	.inst	0x3f6e6961 ; undefined
   60f1c:	746e4500 	.inst	0x746e4500 ; undefined
   60f20:	61207265 	.inst	0x61207265 ; undefined
   60f24:	6d756e20 	ldp	d0, d27, [x17, #-176]
   60f28:	20726562 	.inst	0x20726562 ; undefined
   60f2c:	66206f74 	.inst	0x66206f74 ; undefined
   60f30:	20646e69 	.inst	0x20646e69 ; undefined
   60f34:	20737469 	.inst	0x20737469 ; undefined
   60f38:	75716573 	.inst	0x75716573 ; undefined
   60f3c:	65636e65 	fnmls	z5.h, p3/m, z19.h, z3.h
   60f40:	206e6920 	.inst	0x206e6920 ; undefined
   60f44:	6f626946 	umlsl2	v6.4s, v10.8h, v2.h[6]
   60f48:	6363616e 	.inst	0x6363616e ; undefined
   60f4c:	53002e69 	ubfx	w9, w19, #0, #12
   60f50:	6e697274 	uabdl2	v20.4s, v19.8h, v9.8h
   60f54:	20422067 	.inst	0x20422067 ; undefined
   60f58:	676e656c 	.inst	0x676e656c ; undefined
   60f5c:	203a6874 	.inst	0x203a6874 ; undefined
   60f60:	0a0a6425 	and	w5, w1, w10, lsl #25
   60f64:	6f440a00 	mla	v0.8h, v16.8h, v4.h[4]
   60f68:	756f7920 	.inst	0x756f7920 ; undefined
   60f6c:	6e617720 	uabd	v0.8h, v25.8h, v1.8h
   60f70:	6f742074 	umlal2	v20.4s, v3.8h, v4.h[3]
   60f74:	6c756d20 	ldnp	d0, d27, [x9, #-176]
   60f78:	6c706974 	ldnp	d20, d26, [x11, #-256]
   60f7c:	77742079 	.inst	0x77742079 ; undefined
   60f80:	756e206f 	.inst	0x756e206f ; undefined
   60f84:	7265626d 	.inst	0x7265626d ; undefined
   60f88:	67612073 	.inst	0x67612073 ; undefined
   60f8c:	3f6e6961 	.inst	0x3f6e6961 ; undefined
   60f90:	63614600 	.inst	0x63614600 ; undefined
   60f94:	3a726f74 	.inst	0x3a726f74 ; undefined
   60f98:	646c2520 	.inst	0x646c2520 ; undefined
   60f9c:	6e45000a 	.inst	0x6e45000a ; undefined
   60fa0:	20726574 	.inst	0x20726574 ; undefined
   60fa4:	6f636573 	sqshlu	v19.2d, v11.2d, #35
   60fa8:	7320646e 	.inst	0x7320646e ; undefined
   60fac:	6e697274 	uabdl2	v20.4s, v19.8h, v9.8h
   60fb0:	6f742067 	umlal2	v7.4s, v3.8h, v4.h[3]
   60fb4:	6d6f6320 	ldp	d0, d24, [x25, #-272]
   60fb8:	65726170 	fnmls	z16.h, p0/m, z11.h, z18.h
   60fbc:	74697720 	.inst	0x74697720 ; undefined
   60fc0:	530a2e68 	ubfx	w8, w19, #10, #2
   60fc4:	6e697274 	uabdl2	v20.4s, v19.8h, v9.8h
   60fc8:	00203a67 	.inst	0x00203a67 ; NYI
   60fcc:	2064250a 	.inst	0x2064250a ; undefined
   60fd0:	73207369 	.inst	0x73207369 ; undefined
   60fd4:	20656d61 	.inst	0x20656d61 ; undefined
   60fd8:	62207361 	.inst	0x62207361 ; undefined
   60fdc:	726f6665 	.inst	0x726f6665 ; undefined
   60fe0:	000a2165 	.inst	0x000a2165 ; undefined
   60fe4:	6e6f430a 	raddhn2	v10.8h, v24.4s, v15.4s
   60fe8:	656c6f73 	fnmls	z19.h, p3/m, z27.h, z12.h
   60fec:	6e654d20 	uqshl	v0.8h, v9.8h, v5.8h
   60ff0:	72772075 	.inst	0x72772075 ; undefined
   60ff4:	65747469 	fnmls	z9.h, p5/m, z3.h, z20.h
   60ff8:	7962206e 	ldrh	w14, [x3, #4368]
   60ffc:	766f4a20 	.inst	0x766f4a20 ; undefined
   61000:	44206e61 	.inst	0x44206e61 ; undefined
   61004:	75472065 	.inst	0x75472065 ; undefined
   61008:	002e6169 	.inst	0x002e6169 ; NYI
   6100c:	64257325 	.inst	0x64257325 ; undefined
   61010:	530a0000 	ubfiz	w0, w0, #22, #1
   61014:	6e697274 	uabdl2	v20.4s, v19.8h, v9.8h
   61018:	00203a67 	.inst	0x00203a67 ; NYI
   6101c:	0a73250a 	bic	w10, w8, w19, lsr #9
   61020:	20756f59 	.inst	0x20756f59 ; undefined
   61024:	64657375 	.inst	0x64657375 ; undefined
   61028:	20642520 	.inst	0x20642520 ; undefined
   6102c:	2074756f 	.inst	0x2074756f ; undefined
   61030:	2520666f 	.inst	0x2520666f ; undefined
   61034:	61632064 	.inst	0x61632064 ; undefined
   61038:	69636170 	ldpsw	x16, x24, [x11, #-232]
   6103c:	002e7974 	.inst	0x002e7974 ; NYI
   61040:	656c6553 	fnmls	z19.h, p1/m, z10.h, z12.h
   61044:	64657463 	.inst	0x64657463 ; undefined
   61048:	646e6920 	.inst	0x646e6920 ; undefined
   6104c:	203a7865 	.inst	0x203a7865 ; undefined
   61050:	202e6425 	.inst	0x202e6425 ; undefined
   61054:	656c6553 	fnmls	z19.h, p1/m, z10.h, z12.h
   61058:	64657463 	.inst	0x64657463 ; undefined
   6105c:	6c617620 	ldnp	d0, d29, [x17, #-496]
   61060:	203a6575 	.inst	0x203a6575 ; undefined
   61064:	002e6425 	.inst	0x002e6425 ; NYI
   61068:	746f4e0a 	.inst	0x746f4e0a ; undefined
   6106c:	676e6968 	.inst	0x676e6968 ; undefined
   61070:	206f7420 	.inst	0x206f7420 ; undefined
   61074:	656c6564 	fnmls	z4.h, p1/m, z11.h, z12.h
   61078:	0a2e6574 	bic	w20, w11, w14, lsl #25
   6107c:	6946000a 	ldpsw	x10, x0, [x0, #48]
   61080:	7420646e 	.inst	0x7420646e ; undefined
   61084:	6e206568 	umax	v8.16b, v11.16b, v0.16b
   61088:	74206874 	.inst	0x74206874 ; undefined
   6108c:	206d7265 	.inst	0x206d7265 ; undefined
   61090:	4620666f 	.inst	0x4620666f ; undefined
   61094:	6e6f6269 	rsubhn2	v9.8h, v19.4s, v15.4s
   61098:	69636361 	ldpsw	x1, x24, [x27, #-232]
   6109c:	6445000a 	fcmla	z10.h, p0/m, z0.h, z5.h, #0
   610a0:	76207469 	.inst	0x76207469 ; undefined
   610a4:	65756c61 	fnmls	z1.h, p3/m, z3.h, z21.h
   610a8:	6f726620 	sqshlu	v0.2d, v17.2d, #50
   610ac:	7261206d 	.inst	0x7261206d ; undefined
   610b0:	2e796172 	rsubhn	v18.4h, v11.4s, v25.4s
   610b4:	6425000a 	fmla	z10.h, z0.h, z5.h[0]
   610b8:	74756f20 	.inst	0x74756f20 ; undefined
   610bc:	20666f20 	.inst	0x20666f20 ; undefined
   610c0:	63206425 	.inst	0x63206425 ; undefined
   610c4:	63617061 	.inst	0x63617061 ; undefined
   610c8:	20797469 	.inst	0x20797469 ; undefined
   610cc:	20736168 	.inst	0x20736168 ; undefined
   610d0:	6e656562 	umax	v2.8h, v11.8h, v5.8h
   610d4:	65737520 	fnmls	z0.h, p5/m, z9.h, z19.h
   610d8:	000a2164 	.inst	0x000a2164 ; undefined
   610dc:	746e450a 	.inst	0x746e450a ; undefined
   610e0:	74207265 	.inst	0x74207265 ; undefined
   610e4:	6c206568 	stnp	d8, d25, [x11, #-512]
   610e8:	74676e65 	.inst	0x74676e65 ; undefined
   610ec:	666f2068 	.inst	0x666f2068 ; undefined
   610f0:	77656e20 	.inst	0x77656e20 ; undefined
   610f4:	6c617620 	ldnp	d0, d29, [x17, #-496]
   610f8:	79206575 	strh	w21, [x11, #4146]
   610fc:	7720756f 	.inst	0x7720756f ; undefined
   61100:	20687369 	.inst	0x20687369 ; undefined
   61104:	61206f74 	.inst	0x61206f74 ; undefined
   61108:	002e6464 	.inst	0x002e6464 ; NYI
   6110c:	65746e45 	fnmls	z5.h, p3/m, z18.h, z20.h
   61110:	20302072 	.inst	0x20302072 ; undefined
   61114:	63206f74 	.inst	0x63206f74 ; undefined
   61118:	65636e61 	fnmls	z1.h, p3/m, z19.h, z3.h
   6111c:	4d202e6c 	st4	{v12.b-v15.b}[11], [x19]
   61120:	6e207861 	sqneg	v1.16b, v3.16b
   61124:	65626d75 	fnmls	z21.h, p3/m, z11.h, z2.h
   61128:	73692072 	.inst	0x73692072 ; undefined
   6112c:	2e642520 	uhsub	v0.4h, v9.4h, v4.4h
   61130:	7241000a 	.inst	0x7241000a ; undefined
   61134:	6f792065 	umlal2	v5.4s, v3.8h, v9.h[3]
   61138:	75732075 	.inst	0x75732075 ; undefined
   6113c:	74206572 	.inst	0x74206572 ; undefined
   61140:	6564206f 	fmls	z15.h, p0/m, z3.h, z4.h
   61144:	6574656c 	fnmls	z12.h, p1/m, z11.h, z20.h
   61148:	646e6920 	.inst	0x646e6920 ; undefined
   6114c:	25207865 	.inst	0x25207865 ; undefined
   61150:	6e612064 	usubl2	v4.4s, v3.8h, v1.8h
   61154:	74692064 	.inst	0x74692064 ; undefined
   61158:	61762073 	.inst	0x61762073 ; undefined
   6115c:	2065756c 	.inst	0x2065756c ; undefined
   61160:	003f6425 	.inst	0x003f6425 ; NYI
   61164:	61727241 	.inst	0x61727241 ; undefined
   61168:	72702079 	.inst	0x72702079 ; undefined
   6116c:	0a746e69 	bic	w9, w19, w20, lsr #27
   61170:	0a732500 	bic	w0, w8, w19, lsr #9
   61174:	6c655700 	ldnp	d0, d21, [x24, #-432]
   61178:	656d6f63 	fnmls	z3.h, p3/m, z27.h, z13.h
   6117c:	206f7420 	.inst	0x206f7420 ; undefined
   61180:	75636552 	.inst	0x75636552 ; undefined
   61184:	6f697372 	fcmla	v18.8h, v27.8h, v9.h[1], #270
   61188:	6f57206e 	umlal2	v14.4s, v3.8h, v7.h[1]
   6118c:	0a646c72 	bic	w18, w3, w4, lsr #27
   61190:	746e4500 	.inst	0x746e4500 ; undefined
   61194:	61207265 	.inst	0x61207265 ; undefined
   61198:	72747320 	.inst	0x72747320 ; undefined
   6119c:	20676e69 	.inst	0x20676e69 ; undefined
   611a0:	74616874 	.inst	0x74616874 ; undefined
   611a4:	756f7720 	.inst	0x756f7720 ; undefined
   611a8:	6e20646c 	umax	v12.16b, v3.16b, v0.16b
   611ac:	6520746f 	.inst	0x6520746f ; undefined
   611b0:	65656378 	fnmls	z24.h, p0/m, z27.h, z5.h
   611b4:	20646564 	.inst	0x20646564 ; undefined
   611b8:	31206f74 	adds	w20, w27, #0x81b
   611bc:	63203732 	.inst	0x63203732 ; undefined
   611c0:	61726168 	.inst	0x61726168 ; undefined
   611c4:	72657463 	.inst	0x72657463 ; undefined
   611c8:	54002e73 	bc.cc	61794 <__FRAME_END__+0x4c4>  // bc.lo, bc.ul, bc.last
   611cc:	20746168 	.inst	0x20746168 ; undefined
   611d0:	626d756e 	.inst	0x626d756e ; undefined
   611d4:	6d207265 	stp	d5, d28, [x19, #-512]
   611d8:	6f207961 	.inst	0x6f207961 ; undefined
   611dc:	66726576 	.inst	0x66726576 ; undefined
   611e0:	20776f6c 	.inst	0x20776f6c ; undefined
   611e4:	20656874 	.inst	0x20656874 ; undefined
   611e8:	61727261 	.inst	0x61727261 ; undefined
   611ec:	Address 0x00000000000611ec is out of bounds.


Disassembly of section .eh_frame_hdr:

00000000000611f0 <.eh_frame_hdr>:
   611f0:	3b031b01 	.inst	0x3b031b01 ; undefined
   611f4:	000000dc 	udf	#220
   611f8:	0000001a 	udf	#26
   611fc:	00001420 	udf	#5152
   61200:	000000f8 	udf	#248
   61204:	00001464 	udf	#5220
   61208:	00000118 	udf	#280
   6120c:	00001478 	udf	#5240
   61210:	00000130 	udf	#304
   61214:	00001498 	udf	#5272
   61218:	00000148 	udf	#328
   6121c:	000014a8 	udf	#5288
   61220:	00000160 	udf	#352
   61224:	00001554 	udf	#5460
   61228:	00000180 	udf	#384
   6122c:	000015f0 	udf	#5616
   61230:	000001a0 	udf	#416
   61234:	00001728 	udf	#5928
   61238:	000001c0 	udf	#448
   6123c:	00001824 	udf	#6180
   61240:	000001e0 	udf	#480
   61244:	0000199c 	udf	#6556
   61248:	00000200 	udf	#512
   6124c:	00001c48 	udf	#7240
   61250:	00000220 	udf	#544
   61254:	00001dd4 	udf	#7636
   61258:	00000240 	udf	#576
   6125c:	00001f80 	udf	#8064
   61260:	00000260 	udf	#608
   61264:	0000227c 	udf	#8828
   61268:	00000280 	udf	#640
   6126c:	000022cc 	udf	#8908
   61270:	000002a0 	udf	#672
   61274:	0000232c 	udf	#9004
   61278:	000002c0 	udf	#704
   6127c:	0000238c 	udf	#9100
   61280:	000002e0 	udf	#736
   61284:	000023f8 	udf	#9208
   61288:	00000300 	udf	#768
   6128c:	00002414 	udf	#9236
   61290:	00000320 	udf	#800
   61294:	0000278c 	udf	#10124
   61298:	00000340 	udf	#832
   6129c:	000027ec 	udf	#10220
   612a0:	00000358 	udf	#856
   612a4:	00002a20 	udf	#10784
   612a8:	00000378 	udf	#888
   612ac:	00002a90 	udf	#10896
   612b0:	00000398 	udf	#920
   612b4:	00002ca4 	udf	#11428
   612b8:	000003b8 	udf	#952
   612bc:	00002ec8 	udf	#11976
   612c0:	000003d8 	udf	#984
   612c4:	00002f68 	udf	#12136
   612c8:	000003f0 	udf	#1008

Disassembly of section .eh_frame:

00000000000612d0 <__FRAME_END__>:
   612d0:	00000014 	udf	#20
   612d4:	00000000 	udf	#0
   612d8:	00527a01 	.inst	0x00527a01 ; undefined
   612dc:	011e7c01 	.inst	0x011e7c01 ; undefined
   612e0:	001f0c1b 	.inst	0x001f0c1b ; undefined
   612e4:	00000000 	udf	#0
   612e8:	0000001c 	udf	#28
   612ec:	0000001c 	udf	#28
   612f0:	00001320 	udf	#4896
   612f4:	00000044 	udf	#68
   612f8:	4c2d4400 	.inst	0x4c2d4400 ; undefined
   612fc:	9e101d0c 	.inst	0x9e101d0c ; undefined
   61300:	00049d02 	.inst	0x00049d02 ; undefined
   61304:	00000000 	udf	#0
   61308:	00000014 	udf	#20
   6130c:	0000003c 	udf	#60
   61310:	00001344 	udf	#4932
   61314:	00000014 	udf	#20
	...
   61320:	00000014 	udf	#20
   61324:	00000054 	udf	#84
   61328:	00001340 	udf	#4928
   6132c:	00000020 	udf	#32
	...
   61338:	00000014 	udf	#20
   6133c:	0000006c 	udf	#108
   61340:	00001348 	udf	#4936
   61344:	00000010 	udf	#16
	...
   61350:	0000001c 	udf	#28
   61354:	00000084 	udf	#132
   61358:	00001340 	udf	#4928
   6135c:	000000ac 	udf	#172
   61360:	1d0c4c00 	.inst	0x1d0c4c00 ; undefined
   61364:	9d029e10 	.inst	0x9d029e10 ; undefined
   61368:	00000004 	udf	#4
   6136c:	00000000 	udf	#0
   61370:	0000001c 	udf	#28
   61374:	000000a4 	udf	#164
   61378:	000013cc 	udf	#5068
   6137c:	0000009c 	udf	#156
   61380:	1d0c4c00 	.inst	0x1d0c4c00 ; undefined
   61384:	9d029e10 	.inst	0x9d029e10 ; undefined
   61388:	00000004 	udf	#4
   6138c:	00000000 	udf	#0
   61390:	0000001c 	udf	#28
   61394:	000000c4 	udf	#196
   61398:	00001448 	udf	#5192
   6139c:	00000138 	udf	#312
   613a0:	1d0c5400 	.inst	0x1d0c5400 ; undefined
   613a4:	9e049c20 	.inst	0x9e049c20 ; undefined
   613a8:	00089d06 	.inst	0x00089d06 ; undefined
   613ac:	00000000 	udf	#0
   613b0:	0000001c 	udf	#28
   613b4:	000000e4 	udf	#228
   613b8:	00001560 	udf	#5472
   613bc:	000000fc 	udf	#252
   613c0:	1d0c4c00 	.inst	0x1d0c4c00 ; undefined
   613c4:	9d029e10 	.inst	0x9d029e10 ; undefined
   613c8:	00000004 	udf	#4
   613cc:	00000000 	udf	#0
   613d0:	0000001c 	udf	#28
   613d4:	00000104 	udf	#260
   613d8:	0000163c 	udf	#5692
   613dc:	00000178 	udf	#376
   613e0:	1d0c4c00 	.inst	0x1d0c4c00 ; undefined
   613e4:	9d029e10 	.inst	0x9d029e10 ; undefined
   613e8:	00000004 	udf	#4
   613ec:	00000000 	udf	#0
   613f0:	0000001c 	udf	#28
   613f4:	00000124 	udf	#292
   613f8:	00001794 	udf	#6036
   613fc:	000002ac 	udf	#684
   61400:	1d0c5400 	.inst	0x1d0c5400 ; undefined
   61404:	9e049c20 	.inst	0x9e049c20 ; undefined
   61408:	00089d06 	.inst	0x00089d06 ; undefined
   6140c:	00000000 	udf	#0
   61410:	0000001c 	udf	#28
   61414:	00000144 	udf	#324
   61418:	00001a20 	udf	#6688
   6141c:	0000018c 	udf	#396
   61420:	1d0c5400 	.inst	0x1d0c5400 ; undefined
   61424:	9e049c20 	.inst	0x9e049c20 ; undefined
   61428:	00089d06 	.inst	0x00089d06 ; undefined
   6142c:	00000000 	udf	#0
   61430:	0000001c 	udf	#28
   61434:	00000164 	udf	#356
   61438:	00001b8c 	udf	#7052
   6143c:	000001ac 	udf	#428
   61440:	1d0c5400 	.inst	0x1d0c5400 ; undefined
   61444:	9e049c20 	.inst	0x9e049c20 ; undefined
   61448:	00089d06 	.inst	0x00089d06 ; undefined
   6144c:	00000000 	udf	#0
   61450:	0000001c 	udf	#28
   61454:	00000184 	udf	#388
   61458:	00001d18 	udf	#7448
   6145c:	000002fc 	udf	#764
   61460:	1d0c5400 	.inst	0x1d0c5400 ; undefined
   61464:	9e049c20 	.inst	0x9e049c20 ; undefined
   61468:	00089d06 	.inst	0x00089d06 ; undefined
   6146c:	00000000 	udf	#0
   61470:	0000001c 	udf	#28
   61474:	000001a4 	udf	#420
   61478:	00001ff4 	udf	#8180
   6147c:	00000050 	udf	#80
   61480:	1d0c4c00 	.inst	0x1d0c4c00 ; undefined
   61484:	9d029e10 	.inst	0x9d029e10 ; undefined
   61488:	00000004 	udf	#4
   6148c:	00000000 	udf	#0
   61490:	0000001c 	udf	#28
   61494:	000001c4 	udf	#452
   61498:	00002024 	udf	#8228
   6149c:	00000060 	udf	#96
   614a0:	1d0c4c00 	.inst	0x1d0c4c00 ; undefined
   614a4:	9d029e10 	.inst	0x9d029e10 ; undefined
   614a8:	00000004 	udf	#4
   614ac:	00000000 	udf	#0
   614b0:	0000001c 	udf	#28
   614b4:	000001e4 	udf	#484
   614b8:	00002064 	udf	#8292
   614bc:	00000060 	udf	#96
   614c0:	1d0c4c00 	.inst	0x1d0c4c00 ; undefined
   614c4:	9d029e10 	.inst	0x9d029e10 ; undefined
   614c8:	00000004 	udf	#4
   614cc:	00000000 	udf	#0
   614d0:	0000001c 	udf	#28
   614d4:	00000204 	udf	#516
   614d8:	000020a4 	udf	#8356
   614dc:	0000006c 	udf	#108
   614e0:	1d0c4c00 	.inst	0x1d0c4c00 ; undefined
   614e4:	9d029e10 	.inst	0x9d029e10 ; undefined
   614e8:	00000004 	udf	#4
   614ec:	00000000 	udf	#0
   614f0:	0000001c 	udf	#28
   614f4:	00000224 	udf	#548
   614f8:	000020f0 	udf	#8432
   614fc:	0000001c 	udf	#28
   61500:	1d0c4800 	.inst	0x1d0c4800 ; undefined
   61504:	9d029e10 	.inst	0x9d029e10 ; undefined
   61508:	00000004 	udf	#4
   6150c:	00000000 	udf	#0
   61510:	0000001c 	udf	#28
   61514:	00000244 	udf	#580
   61518:	000020ec 	udf	#8428
   6151c:	00000378 	udf	#888
   61520:	1d0c5400 	.inst	0x1d0c5400 ; undefined
   61524:	9e049c20 	.inst	0x9e049c20 ; undefined
   61528:	00089d06 	.inst	0x00089d06 ; undefined
   6152c:	00000000 	udf	#0
   61530:	00000014 	udf	#20
   61534:	00000264 	udf	#612
   61538:	00002444 	udf	#9284
   6153c:	00000060 	udf	#96
   61540:	100e4400 	adr	x0, 7ddc0 <Message.num+0x167ec>
   61544:	00000000 	udf	#0
   61548:	0000001c 	udf	#28
   6154c:	0000027c 	udf	#636
   61550:	0000248c 	udf	#9356
   61554:	00000234 	udf	#564
   61558:	1d0c5000 	.inst	0x1d0c5000 ; undefined
   6155c:	9e049c20 	.inst	0x9e049c20 ; undefined
   61560:	00089d06 	.inst	0x00089d06 ; undefined
   61564:	00000000 	udf	#0
   61568:	0000001c 	udf	#28
   6156c:	0000029c 	udf	#668
   61570:	000026a0 	udf	#9888
   61574:	00000070 	udf	#112
   61578:	1d0c4c00 	.inst	0x1d0c4c00 ; undefined
   6157c:	9d029e10 	.inst	0x9d029e10 ; undefined
   61580:	00000004 	udf	#4
   61584:	00000000 	udf	#0
   61588:	0000001c 	udf	#28
   6158c:	000002bc 	udf	#700
   61590:	000026f0 	udf	#9968
   61594:	00000214 	udf	#532
   61598:	1d0c4c00 	.inst	0x1d0c4c00 ; undefined
   6159c:	9d029e10 	.inst	0x9d029e10 ; undefined
   615a0:	00000004 	udf	#4
   615a4:	00000000 	udf	#0
   615a8:	0000001c 	udf	#28
   615ac:	000002dc 	udf	#732
   615b0:	000028e4 	udf	#10468
   615b4:	00000224 	udf	#548
   615b8:	1d0c5400 	.inst	0x1d0c5400 ; undefined
   615bc:	9e049c20 	.inst	0x9e049c20 ; undefined
   615c0:	00089d06 	.inst	0x00089d06 ; undefined
   615c4:	00000000 	udf	#0
   615c8:	00000014 	udf	#20
   615cc:	000002fc 	udf	#764
   615d0:	00002ae8 	udf	#10984
   615d4:	000000a0 	udf	#160
   615d8:	200e4400 	.inst	0x200e4400 ; undefined
   615dc:	00000000 	udf	#0
   615e0:	00000014 	udf	#20
   615e4:	00000314 	udf	#788
   615e8:	00002b70 	udf	#11120
   615ec:	000000f4 	udf	#244
   615f0:	200e4400 	.inst	0x200e4400 ; undefined
	...

Disassembly of section .text:

00000000000625fc <_start>:
   625fc:	d503249f 	bti	j
   62600:	d280001d 	mov	x29, #0x0                   	// #0
   62604:	d280001e 	mov	x30, #0x0                   	// #0
   62608:	910003e0 	mov	x0, sp
   6260c:	14000001 	b	62610 <_start_main>

0000000000062610 <_start_main>:
   62610:	d503233f 	paciasp
   62614:	d100c3ff 	sub	sp, sp, #0x30
   62618:	a9027bfd 	stp	x29, x30, [sp, #32]
   6261c:	910083fd 	add	x29, sp, #0x20
   62620:	f0000008 	adrp	x8, 65000 <system@plt+0xce0>
   62624:	f0000009 	adrp	x9, 65000 <system@plt+0xce0>
   62628:	f000000a 	adrp	x10, 65000 <system@plt+0xce0>
   6262c:	f942a108 	ldr	x8, [x8, #1344]
   62630:	f9429d29 	ldr	x9, [x9, #1336]
   62634:	f942994a 	ldr	x10, [x10, #1328]
   62638:	f0000002 	adrp	x2, 65000 <system@plt+0xce0>
   6263c:	910023e3 	add	x3, sp, #0x8
   62640:	a900a7e8 	stp	x8, x9, [sp, #8]
   62644:	f9000fea 	str	x10, [sp, #24]
   62648:	f942a442 	ldr	x2, [x2, #1352]
   6264c:	aa1f03e1 	mov	x1, xzr
   62650:	9400070c 	bl	64280 <__libc_init@plt>

0000000000062654 <__atexit_handler_wrapper>:
   62654:	d503245f 	bti	c
   62658:	b4000060 	cbz	x0, 62664 <__atexit_handler_wrapper+0x10>
   6265c:	aa0003f0 	mov	x16, x0
   62660:	d61f0200 	br	x16
   62664:	d65f03c0 	ret

0000000000062668 <atexit>:
   62668:	d503245f 	bti	c
   6266c:	d503201f 	nop
   62670:	10ffff28 	adr	x8, 62654 <__atexit_handler_wrapper>
   62674:	d503201f 	nop
   62678:	1001fa82 	adr	x2, 665c8 <__dso_handle>
   6267c:	aa0003e1 	mov	x1, x0
   62680:	aa0803e0 	mov	x0, x8
   62684:	140006fb 	b	64270 <__cxa_atexit@plt>

0000000000062688 <pthread_atfork>:
   62688:	d503245f 	bti	c
   6268c:	d503201f 	nop
   62690:	1001f9c3 	adr	x3, 665c8 <__dso_handle>
   62694:	140006ff 	b	64290 <__register_atfork@plt>

0000000000062698 <main>:
   62698:	d10083ff 	sub	sp, sp, #0x20
   6269c:	a9017bfd 	stp	x29, x30, [sp, #16]
   626a0:	910043fd 	add	x29, sp, #0x10
   626a4:	b81fc3bf 	stur	wzr, [x29, #-4]
   626a8:	940003d0 	bl	635e8 <clrscr>
   626ac:	d503201f 	nop
   626b0:	50ff2c40 	adr	x0, 60c3a <note_end+0x608e2>
   626b4:	940006fb 	bl	642a0 <printf@plt>
   626b8:	d0ffffe0 	adrp	x0, 60000 <note_end+0x5fca8>
   626bc:	912b5800 	add	x0, x0, #0xad6
   626c0:	528000a1 	mov	w1, #0x5                   	// #5
   626c4:	940006f7 	bl	642a0 <printf@plt>
   626c8:	d0ffffe0 	adrp	x0, 60000 <note_end+0x5fca8>
   626cc:	913f9000 	add	x0, x0, #0xfe4
   626d0:	940006f4 	bl	642a0 <printf@plt>
   626d4:	d0ffffe0 	adrp	x0, 60000 <note_end+0x5fca8>
   626d8:	9133bc00 	add	x0, x0, #0xcef
   626dc:	940006f1 	bl	642a0 <printf@plt>
   626e0:	d0ffffe0 	adrp	x0, 60000 <note_end+0x5fca8>
   626e4:	912dd400 	add	x0, x0, #0xb75
   626e8:	94000017 	bl	62744 <Confirm>
   626ec:	350000e0 	cbnz	w0, 62708 <main+0x70>
   626f0:	14000001 	b	626f4 <main+0x5c>
   626f4:	d0ffffe0 	adrp	x0, 60000 <note_end+0x5fca8>
   626f8:	91261400 	add	x0, x0, #0x985
   626fc:	940006e9 	bl	642a0 <printf@plt>
   62700:	b81fc3bf 	stur	wzr, [x29, #-4]
   62704:	1400000c 	b	62734 <main+0x9c>
   62708:	14000001 	b	6270c <main+0x74>
   6270c:	94000035 	bl	627e0 <mainMenu>
   62710:	34000060 	cbz	w0, 6271c <main+0x84>
   62714:	14000001 	b	62718 <main+0x80>
   62718:	17fffffd 	b	6270c <main+0x74>
   6271c:	940003b3 	bl	635e8 <clrscr>
   62720:	d0ffffe0 	adrp	x0, 60000 <note_end+0x5fca8>
   62724:	912e3800 	add	x0, x0, #0xb8e
   62728:	940006de 	bl	642a0 <printf@plt>
   6272c:	b81fc3bf 	stur	wzr, [x29, #-4]
   62730:	14000001 	b	62734 <main+0x9c>
   62734:	b85fc3a0 	ldur	w0, [x29, #-4]
   62738:	a9417bfd 	ldp	x29, x30, [sp, #16]
   6273c:	910083ff 	add	sp, sp, #0x20
   62740:	d65f03c0 	ret

0000000000062744 <Confirm>:
   62744:	d100c3ff 	sub	sp, sp, #0x30
   62748:	a9027bfd 	stp	x29, x30, [sp, #32]
   6274c:	910083fd 	add	x29, sp, #0x20
   62750:	f9000be0 	str	x0, [sp, #16]
   62754:	f9400be1 	ldr	x1, [sp, #16]
   62758:	d0ffffe0 	adrp	x0, 60000 <note_end+0x5fca8>
   6275c:	91220800 	add	x0, x0, #0x882
   62760:	940006d0 	bl	642a0 <printf@plt>
   62764:	14000001 	b	62768 <Confirm+0x24>
   62768:	d0ffffe0 	adrp	x0, 60000 <note_end+0x5fca8>
   6276c:	9130d400 	add	x0, x0, #0xc35
   62770:	91003fe1 	add	x1, sp, #0xf
   62774:	940006cf 	bl	642b0 <scanf@plt>
   62778:	39403fe8 	ldrb	w8, [sp, #15]
   6277c:	7101e508 	subs	w8, w8, #0x79
   62780:	540000c0 	b.eq	62798 <Confirm+0x54>  // b.none
   62784:	14000001 	b	62788 <Confirm+0x44>
   62788:	39403fe8 	ldrb	w8, [sp, #15]
   6278c:	71016508 	subs	w8, w8, #0x59
   62790:	540000a1 	b.ne	627a4 <Confirm+0x60>  // b.any
   62794:	14000001 	b	62798 <Confirm+0x54>
   62798:	52800028 	mov	w8, #0x1                   	// #1
   6279c:	b81fc3a8 	stur	w8, [x29, #-4]
   627a0:	1400000c 	b	627d0 <Confirm+0x8c>
   627a4:	39403fe8 	ldrb	w8, [sp, #15]
   627a8:	7101b908 	subs	w8, w8, #0x6e
   627ac:	540000c0 	b.eq	627c4 <Confirm+0x80>  // b.none
   627b0:	14000001 	b	627b4 <Confirm+0x70>
   627b4:	39403fe8 	ldrb	w8, [sp, #15]
   627b8:	71013908 	subs	w8, w8, #0x4e
   627bc:	54000081 	b.ne	627cc <Confirm+0x88>  // b.any
   627c0:	14000001 	b	627c4 <Confirm+0x80>
   627c4:	b81fc3bf 	stur	wzr, [x29, #-4]
   627c8:	14000002 	b	627d0 <Confirm+0x8c>
   627cc:	17ffffe7 	b	62768 <Confirm+0x24>
   627d0:	b85fc3a0 	ldur	w0, [x29, #-4]
   627d4:	a9427bfd 	ldp	x29, x30, [sp, #32]
   627d8:	9100c3ff 	add	sp, sp, #0x30
   627dc:	d65f03c0 	ret

00000000000627e0 <mainMenu>:
   627e0:	a9be7bfd 	stp	x29, x30, [sp, #-32]!
   627e4:	f9000bfc 	str	x28, [sp, #16]
   627e8:	910003fd 	mov	x29, sp
   627ec:	d14043ff 	sub	sp, sp, #0x10, lsl #12
   627f0:	d10083ff 	sub	sp, sp, #0x20
   627f4:	d10013a8 	sub	x8, x29, #0x4
   627f8:	f90007e8 	str	x8, [sp, #8]
   627fc:	910073e0 	add	x0, sp, #0x1c
   62800:	f9000be0 	str	x0, [sp, #16]
   62804:	d0fffce1 	adrp	x1, 0 <note_android_ident-0x2c0>
   62808:	911d0021 	add	x1, x1, #0x740
   6280c:	d2a00022 	mov	x2, #0x10000               	// #65536
   62810:	940006ac 	bl	642c0 <memcpy@plt>
   62814:	94000375 	bl	635e8 <clrscr>
   62818:	d0ffffe0 	adrp	x0, 60000 <note_end+0x5fca8>
   6281c:	91384800 	add	x0, x0, #0xe12
   62820:	940006a0 	bl	642a0 <printf@plt>
   62824:	f0ffffe0 	adrp	x0, 61000 <note_end+0x60ca8>
   62828:	91004400 	add	x0, x0, #0x11
   6282c:	9400003b 	bl	62918 <Message>
   62830:	f9400be0 	ldr	x0, [sp, #16]
   62834:	528000a1 	mov	w1, #0x5                   	// #5
   62838:	94000077 	bl	62a14 <displayMenu>
   6283c:	b9001be0 	str	w0, [sp, #24]
   62840:	b9401be8 	ldr	w8, [sp, #24]
   62844:	71000508 	subs	w8, w8, #0x1
   62848:	54000101 	b.ne	62868 <mainMenu+0x88>  // b.any
   6284c:	14000001 	b	62850 <mainMenu+0x70>
   62850:	14000001 	b	62854 <mainMenu+0x74>
   62854:	940000ce 	bl	62b8c <Arithmetic>
   62858:	34000060 	cbz	w0, 62864 <mainMenu+0x84>
   6285c:	14000001 	b	62860 <mainMenu+0x80>
   62860:	17fffffd 	b	62854 <mainMenu+0x74>
   62864:	14000001 	b	62868 <mainMenu+0x88>
   62868:	b9401be8 	ldr	w8, [sp, #24]
   6286c:	71000908 	subs	w8, w8, #0x2
   62870:	54000101 	b.ne	62890 <mainMenu+0xb0>  // b.any
   62874:	14000001 	b	62878 <mainMenu+0x98>
   62878:	14000001 	b	6287c <mainMenu+0x9c>
   6287c:	9400016f 	bl	62e38 <Arrays>
   62880:	34000060 	cbz	w0, 6288c <mainMenu+0xac>
   62884:	14000001 	b	62888 <mainMenu+0xa8>
   62888:	17fffffd 	b	6287c <mainMenu+0x9c>
   6288c:	14000001 	b	62890 <mainMenu+0xb0>
   62890:	b9401be8 	ldr	w8, [sp, #24]
   62894:	71000d08 	subs	w8, w8, #0x3
   62898:	54000101 	b.ne	628b8 <mainMenu+0xd8>  // b.any
   6289c:	14000001 	b	628a0 <mainMenu+0xc0>
   628a0:	14000001 	b	628a4 <mainMenu+0xc4>
   628a4:	940001c8 	bl	62fc4 <Recursion>
   628a8:	34000060 	cbz	w0, 628b4 <mainMenu+0xd4>
   628ac:	14000001 	b	628b0 <mainMenu+0xd0>
   628b0:	17fffffd 	b	628a4 <mainMenu+0xc4>
   628b4:	14000001 	b	628b8 <mainMenu+0xd8>
   628b8:	b9401be8 	ldr	w8, [sp, #24]
   628bc:	71001108 	subs	w8, w8, #0x4
   628c0:	54000081 	b.ne	628d0 <mainMenu+0xf0>  // b.any
   628c4:	14000001 	b	628c8 <mainMenu+0xe8>
   628c8:	9400022a 	bl	63170 <Strings>
   628cc:	14000001 	b	628d0 <mainMenu+0xf0>
   628d0:	b9401be8 	ldr	w8, [sp, #24]
   628d4:	71001508 	subs	w8, w8, #0x5
   628d8:	540000a1 	b.ne	628ec <mainMenu+0x10c>  // b.any
   628dc:	14000001 	b	628e0 <mainMenu+0x100>
   628e0:	f94007e8 	ldr	x8, [sp, #8]
   628e4:	b900011f 	str	wzr, [x8]
   628e8:	14000005 	b	628fc <mainMenu+0x11c>
   628ec:	f94007e9 	ldr	x9, [sp, #8]
   628f0:	52800028 	mov	w8, #0x1                   	// #1
   628f4:	b9000128 	str	w8, [x9]
   628f8:	14000001 	b	628fc <mainMenu+0x11c>
   628fc:	f94007e8 	ldr	x8, [sp, #8]
   62900:	b9400100 	ldr	w0, [x8]
   62904:	914043ff 	add	sp, sp, #0x10, lsl #12
   62908:	910083ff 	add	sp, sp, #0x20
   6290c:	f9400bfc 	ldr	x28, [sp, #16]
   62910:	a8c27bfd 	ldp	x29, x30, [sp], #32
   62914:	d65f03c0 	ret

0000000000062918 <Message>:
   62918:	d100c3ff 	sub	sp, sp, #0x30
   6291c:	a9027bfd 	stp	x29, x30, [sp, #32]
   62920:	910083fd 	add	x29, sp, #0x20
   62924:	f9000be0 	str	x0, [sp, #16]
   62928:	f9400be0 	ldr	x0, [sp, #16]
   6292c:	d0ffffe1 	adrp	x1, 60000 <note_end+0x5fca8>
   62930:	91342421 	add	x1, x1, #0xd09
   62934:	94000667 	bl	642d0 <strcmp@plt>
   62938:	35000180 	cbnz	w0, 62968 <Message+0x50>
   6293c:	14000001 	b	62940 <Message+0x28>
   62940:	90000020 	adrp	x0, 66000 <_DYNAMIC+0xca0>
   62944:	91375000 	add	x0, x0, #0xdd4
   62948:	2a1f03e1 	mov	w1, wzr
   6294c:	d2810002 	mov	x2, #0x800                 	// #2048
   62950:	94000664 	bl	642e0 <memset@plt>
   62954:	b0000028 	adrp	x8, 67000 <Message.MESS+0x22c>
   62958:	b905d51f 	str	wzr, [x8, #1492]
   6295c:	52800028 	mov	w8, #0x1                   	// #1
   62960:	b81fc3a8 	stur	w8, [x29, #-4]
   62964:	14000028 	b	62a04 <Message+0xec>
   62968:	b0000028 	adrp	x8, 67000 <Message.MESS+0x22c>
   6296c:	b945d508 	ldr	w8, [x8, #1492]
   62970:	34000348 	cbz	w8, 629d8 <Message+0xc0>
   62974:	14000001 	b	62978 <Message+0x60>
   62978:	90000020 	adrp	x0, 66000 <_DYNAMIC+0xca0>
   6297c:	91375000 	add	x0, x0, #0xdd4
   62980:	f0ffffe1 	adrp	x1, 61000 <note_end+0x60ca8>
   62984:	91004421 	add	x1, x1, #0x11
   62988:	94000652 	bl	642d0 <strcmp@plt>
   6298c:	34000260 	cbz	w0, 629d8 <Message+0xc0>
   62990:	14000001 	b	62994 <Message+0x7c>
   62994:	d0ffffe0 	adrp	x0, 60000 <note_end+0x5fca8>
   62998:	91267800 	add	x0, x0, #0x99e
   6299c:	f90003e0 	str	x0, [sp]
   629a0:	90000021 	adrp	x1, 66000 <_DYNAMIC+0xca0>
   629a4:	91375021 	add	x1, x1, #0xdd4
   629a8:	f90007e1 	str	x1, [sp, #8]
   629ac:	9400063d 	bl	642a0 <printf@plt>
   629b0:	f94003e1 	ldr	x1, [sp]
   629b4:	f94007e0 	ldr	x0, [sp, #8]
   629b8:	f0ffffe2 	adrp	x2, 61000 <note_end+0x60ca8>
   629bc:	91004442 	add	x2, x2, #0x11
   629c0:	9400064c 	bl	642f0 <sprintf@plt>
   629c4:	b0000028 	adrp	x8, 67000 <Message.MESS+0x22c>
   629c8:	b905d51f 	str	wzr, [x8, #1492]
   629cc:	52800028 	mov	w8, #0x1                   	// #1
   629d0:	b81fc3a8 	stur	w8, [x29, #-4]
   629d4:	1400000c 	b	62a04 <Message+0xec>
   629d8:	52800028 	mov	w8, #0x1                   	// #1
   629dc:	b0000029 	adrp	x9, 67000 <Message.MESS+0x22c>
   629e0:	b905d528 	str	w8, [x9, #1492]
   629e4:	f9400be2 	ldr	x2, [sp, #16]
   629e8:	90000020 	adrp	x0, 66000 <_DYNAMIC+0xca0>
   629ec:	91375000 	add	x0, x0, #0xdd4
   629f0:	d0ffffe1 	adrp	x1, 60000 <note_end+0x5fca8>
   629f4:	91267821 	add	x1, x1, #0x99e
   629f8:	9400063e 	bl	642f0 <sprintf@plt>
   629fc:	b81fc3bf 	stur	wzr, [x29, #-4]
   62a00:	14000001 	b	62a04 <Message+0xec>
   62a04:	b85fc3a0 	ldur	w0, [x29, #-4]
   62a08:	a9427bfd 	ldp	x29, x30, [sp, #32]
   62a0c:	9100c3ff 	add	sp, sp, #0x30
   62a10:	d65f03c0 	ret

0000000000062a14 <displayMenu>:
   62a14:	d10243ff 	sub	sp, sp, #0x90
   62a18:	a9087bfd 	stp	x29, x30, [sp, #128]
   62a1c:	910203fd 	add	x29, sp, #0x80
   62a20:	f81f83a0 	stur	x0, [x29, #-8]
   62a24:	b81f43a1 	stur	w1, [x29, #-12]
   62a28:	9100d3e0 	add	x0, sp, #0x34
   62a2c:	f9000be0 	str	x0, [sp, #16]
   62a30:	d0ffffe1 	adrp	x1, 60000 <note_end+0x5fca8>
   62a34:	911d0021 	add	x1, x1, #0x740
   62a38:	d2800802 	mov	x2, #0x40                  	// #64
   62a3c:	94000621 	bl	642c0 <memcpy@plt>
   62a40:	f9400be1 	ldr	x1, [sp, #16]
   62a44:	f0ffffe0 	adrp	x0, 61000 <note_end+0x60ca8>
   62a48:	9105c400 	add	x0, x0, #0x171
   62a4c:	94000615 	bl	642a0 <printf@plt>
   62a50:	b9002fff 	str	wzr, [sp, #44]
   62a54:	14000001 	b	62a58 <displayMenu+0x44>
   62a58:	b9402fe8 	ldr	w8, [sp, #44]
   62a5c:	b85f43a9 	ldur	w9, [x29, #-12]
   62a60:	6b090108 	subs	w8, w8, w9
   62a64:	540001ea 	b.ge	62aa0 <displayMenu+0x8c>  // b.tcont
   62a68:	14000001 	b	62a6c <displayMenu+0x58>
   62a6c:	b9402fe8 	ldr	w8, [sp, #44]
   62a70:	11000501 	add	w1, w8, #0x1
   62a74:	f85f83a8 	ldur	x8, [x29, #-8]
   62a78:	b9802fe9 	ldrsw	x9, [sp, #44]
   62a7c:	8b091d02 	add	x2, x8, x9, lsl #7
   62a80:	d0ffffe0 	adrp	x0, 60000 <note_end+0x5fca8>
   62a84:	9134b000 	add	x0, x0, #0xd2c
   62a88:	94000606 	bl	642a0 <printf@plt>
   62a8c:	14000001 	b	62a90 <displayMenu+0x7c>
   62a90:	b9402fe8 	ldr	w8, [sp, #44]
   62a94:	11000508 	add	w8, w8, #0x1
   62a98:	b9002fe8 	str	w8, [sp, #44]
   62a9c:	17ffffef 	b	62a58 <displayMenu+0x44>
   62aa0:	f0ffffe0 	adrp	x0, 61000 <note_end+0x60ca8>
   62aa4:	9105c400 	add	x0, x0, #0x171
   62aa8:	9100d3e1 	add	x1, sp, #0x34
   62aac:	940005fd 	bl	642a0 <printf@plt>
   62ab0:	14000001 	b	62ab4 <displayMenu+0xa0>
   62ab4:	910073e0 	add	x0, sp, #0x1c
   62ab8:	f0ffffe1 	adrp	x1, 61000 <note_end+0x60ca8>
   62abc:	91004421 	add	x1, x1, #0x11
   62ac0:	94000604 	bl	642d0 <strcmp@plt>
   62ac4:	340000c0 	cbz	w0, 62adc <displayMenu+0xc8>
   62ac8:	14000001 	b	62acc <displayMenu+0xb8>
   62acc:	d0ffffe0 	adrp	x0, 60000 <note_end+0x5fca8>
   62ad0:	91234800 	add	x0, x0, #0x8d2
   62ad4:	940005f3 	bl	642a0 <printf@plt>
   62ad8:	14000005 	b	62aec <displayMenu+0xd8>
   62adc:	d0ffffe0 	adrp	x0, 60000 <note_end+0x5fca8>
   62ae0:	91218800 	add	x0, x0, #0x862
   62ae4:	940005ef 	bl	642a0 <printf@plt>
   62ae8:	14000001 	b	62aec <displayMenu+0xd8>
   62aec:	d0ffffe0 	adrp	x0, 60000 <note_end+0x5fca8>
   62af0:	91298000 	add	x0, x0, #0xa60
   62af4:	910073e1 	add	x1, sp, #0x1c
   62af8:	f90007e1 	str	x1, [sp, #8]
   62afc:	940005ed 	bl	642b0 <scanf@plt>
   62b00:	f94007e0 	ldr	x0, [sp, #8]
   62b04:	910083e1 	add	x1, sp, #0x20
   62b08:	52800142 	mov	w2, #0xa                   	// #10
   62b0c:	940005fd 	bl	64300 <strtol@plt>
   62b10:	2a0003e8 	mov	w8, w0
   62b14:	b90033e8 	str	w8, [sp, #48]
   62b18:	14000001 	b	62b1c <displayMenu+0x108>
   62b1c:	f94013e8 	ldr	x8, [sp, #32]
   62b20:	39400108 	ldrb	w8, [x8]
   62b24:	52800009 	mov	w9, #0x0                   	// #0
   62b28:	b90007e9 	str	w9, [sp, #4]
   62b2c:	35000228 	cbnz	w8, 62b70 <displayMenu+0x15c>
   62b30:	14000001 	b	62b34 <displayMenu+0x120>
   62b34:	b94033e9 	ldr	w9, [sp, #48]
   62b38:	52800008 	mov	w8, #0x0                   	// #0
   62b3c:	71000129 	subs	w9, w9, #0x0
   62b40:	b90003e8 	str	w8, [sp]
   62b44:	5400010d 	b.le	62b64 <displayMenu+0x150>
   62b48:	14000001 	b	62b4c <displayMenu+0x138>
   62b4c:	b94033e8 	ldr	w8, [sp, #48]
   62b50:	b85f43a9 	ldur	w9, [x29, #-12]
   62b54:	6b090108 	subs	w8, w8, w9
   62b58:	1a9fc7e8 	cset	w8, le
   62b5c:	b90003e8 	str	w8, [sp]
   62b60:	14000001 	b	62b64 <displayMenu+0x150>
   62b64:	b94003e8 	ldr	w8, [sp]
   62b68:	b90007e8 	str	w8, [sp, #4]
   62b6c:	14000001 	b	62b70 <displayMenu+0x15c>
   62b70:	b94007e8 	ldr	w8, [sp, #4]
   62b74:	3607fa08 	tbz	w8, #0, 62ab4 <displayMenu+0xa0>
   62b78:	14000001 	b	62b7c <displayMenu+0x168>
   62b7c:	b94033e0 	ldr	w0, [sp, #48]
   62b80:	a9487bfd 	ldp	x29, x30, [sp, #128]
   62b84:	910243ff 	add	sp, sp, #0x90
   62b88:	d65f03c0 	ret

0000000000062b8c <Arithmetic>:
   62b8c:	a9be7bfd 	stp	x29, x30, [sp, #-32]!
   62b90:	f9000bfc 	str	x28, [sp, #16]
   62b94:	910003fd 	mov	x29, sp
   62b98:	d14043ff 	sub	sp, sp, #0x10, lsl #12
   62b9c:	d100c3ff 	sub	sp, sp, #0x30
   62ba0:	d10033a8 	sub	x8, x29, #0xc
   62ba4:	f90007e8 	str	x8, [sp, #8]
   62ba8:	910093e0 	add	x0, sp, #0x24
   62bac:	f9000be0 	str	x0, [sp, #16]
   62bb0:	d0fffd61 	adrp	x1, 10000 <note_end+0xfca8>
   62bb4:	911d0021 	add	x1, x1, #0x740
   62bb8:	d2a00022 	mov	x2, #0x10000               	// #65536
   62bbc:	940005c1 	bl	642c0 <memcpy@plt>
   62bc0:	9400028a 	bl	635e8 <clrscr>
   62bc4:	d0ffffe0 	adrp	x0, 60000 <note_end+0x5fca8>
   62bc8:	9134d000 	add	x0, x0, #0xd34
   62bcc:	940005b5 	bl	642a0 <printf@plt>
   62bd0:	f9400be0 	ldr	x0, [sp, #16]
   62bd4:	528000c1 	mov	w1, #0x6                   	// #6
   62bd8:	97ffff8f 	bl	62a14 <displayMenu>
   62bdc:	71000408 	subs	w8, w0, #0x1
   62be0:	f9000fe8 	str	x8, [sp, #24]
   62be4:	f1001508 	subs	x8, x8, #0x5
   62be8:	54001128 	b.hi	62e0c <Arithmetic+0x280>  // b.pmore
   62bec:	f9400feb 	ldr	x11, [sp, #24]
   62bf0:	d503201f 	nop
   62bf4:	10ced92a 	adr	x10, 718 <note_end+0x3c0>
   62bf8:	10000008 	adr	x8, 62bf8 <Arithmetic+0x6c>
   62bfc:	b8ab7949 	ldrsw	x9, [x10, x11, lsl #2]
   62c00:	8b090108 	add	x8, x8, x9
   62c04:	d61f0100 	br	x8
   62c08:	94000278 	bl	635e8 <clrscr>
   62c0c:	d0ffffe0 	adrp	x0, 60000 <note_end+0x5fca8>
   62c10:	912f6400 	add	x0, x0, #0xbd9
   62c14:	940005a3 	bl	642a0 <printf@plt>
   62c18:	14000001 	b	62c1c <Arithmetic+0x90>
   62c1c:	d10023a0 	sub	x0, x29, #0x8
   62c20:	d10033a1 	sub	x1, x29, #0xc
   62c24:	94000212 	bl	6346c <getTwoInputs>
   62c28:	f94007e9 	ldr	x9, [sp, #8]
   62c2c:	b9400521 	ldr	w1, [x9, #4]
   62c30:	b9400122 	ldr	w2, [x9]
   62c34:	b9400528 	ldr	w8, [x9, #4]
   62c38:	b9400129 	ldr	w9, [x9]
   62c3c:	0b090103 	add	w3, w8, w9
   62c40:	d0ffffe0 	adrp	x0, 60000 <note_end+0x5fca8>
   62c44:	913b9000 	add	x0, x0, #0xee4
   62c48:	94000596 	bl	642a0 <printf@plt>
   62c4c:	14000001 	b	62c50 <Arithmetic+0xc4>
   62c50:	d0ffffe0 	adrp	x0, 60000 <note_end+0x5fca8>
   62c54:	9123d000 	add	x0, x0, #0x8f4
   62c58:	97fffebb 	bl	62744 <Confirm>
   62c5c:	35fffe00 	cbnz	w0, 62c1c <Arithmetic+0x90>
   62c60:	14000001 	b	62c64 <Arithmetic+0xd8>
   62c64:	1400006a 	b	62e0c <Arithmetic+0x280>
   62c68:	94000260 	bl	635e8 <clrscr>
   62c6c:	d0ffffe0 	adrp	x0, 60000 <note_end+0x5fca8>
   62c70:	91276c00 	add	x0, x0, #0x9db
   62c74:	9400058b 	bl	642a0 <printf@plt>
   62c78:	14000001 	b	62c7c <Arithmetic+0xf0>
   62c7c:	d10023a0 	sub	x0, x29, #0x8
   62c80:	d10033a1 	sub	x1, x29, #0xc
   62c84:	940001fa 	bl	6346c <getTwoInputs>
   62c88:	f94007e9 	ldr	x9, [sp, #8]
   62c8c:	b9400521 	ldr	w1, [x9, #4]
   62c90:	b9400122 	ldr	w2, [x9]
   62c94:	b9400528 	ldr	w8, [x9, #4]
   62c98:	b9400129 	ldr	w9, [x9]
   62c9c:	6b090103 	subs	w3, w8, w9
   62ca0:	d0ffffe0 	adrp	x0, 60000 <note_end+0x5fca8>
   62ca4:	91312400 	add	x0, x0, #0xc49
   62ca8:	9400057e 	bl	642a0 <printf@plt>
   62cac:	14000001 	b	62cb0 <Arithmetic+0x124>
   62cb0:	d0ffffe0 	adrp	x0, 60000 <note_end+0x5fca8>
   62cb4:	913bc400 	add	x0, x0, #0xef1
   62cb8:	97fffea3 	bl	62744 <Confirm>
   62cbc:	35fffe00 	cbnz	w0, 62c7c <Arithmetic+0xf0>
   62cc0:	14000001 	b	62cc4 <Arithmetic+0x138>
   62cc4:	14000052 	b	62e0c <Arithmetic+0x280>
   62cc8:	94000248 	bl	635e8 <clrscr>
   62ccc:	d0ffffe0 	adrp	x0, 60000 <note_end+0x5fca8>
   62cd0:	9127c400 	add	x0, x0, #0x9f1
   62cd4:	94000573 	bl	642a0 <printf@plt>
   62cd8:	14000001 	b	62cdc <Arithmetic+0x150>
   62cdc:	d10023a0 	sub	x0, x29, #0x8
   62ce0:	d10033a1 	sub	x1, x29, #0xc
   62ce4:	940001e2 	bl	6346c <getTwoInputs>
   62ce8:	f94007e9 	ldr	x9, [sp, #8]
   62cec:	b9400521 	ldr	w1, [x9, #4]
   62cf0:	b9400122 	ldr	w2, [x9]
   62cf4:	b9400528 	ldr	w8, [x9, #4]
   62cf8:	b9400129 	ldr	w9, [x9]
   62cfc:	1b097d03 	mul	w3, w8, w9
   62d00:	d0ffffe0 	adrp	x0, 60000 <note_end+0x5fca8>
   62d04:	912c1400 	add	x0, x0, #0xb05
   62d08:	94000566 	bl	642a0 <printf@plt>
   62d0c:	14000001 	b	62d10 <Arithmetic+0x184>
   62d10:	d0ffffe0 	adrp	x0, 60000 <note_end+0x5fca8>
   62d14:	913d9400 	add	x0, x0, #0xf65
   62d18:	97fffe8b 	bl	62744 <Confirm>
   62d1c:	35fffe00 	cbnz	w0, 62cdc <Arithmetic+0x150>
   62d20:	14000001 	b	62d24 <Arithmetic+0x198>
   62d24:	1400003a 	b	62e0c <Arithmetic+0x280>
   62d28:	94000230 	bl	635e8 <clrscr>
   62d2c:	d0ffffe0 	adrp	x0, 60000 <note_end+0x5fca8>
   62d30:	91315800 	add	x0, x0, #0xc56
   62d34:	9400055b 	bl	642a0 <printf@plt>
   62d38:	14000001 	b	62d3c <Arithmetic+0x1b0>
   62d3c:	d10023a0 	sub	x0, x29, #0x8
   62d40:	d10033a1 	sub	x1, x29, #0xc
   62d44:	940001ca 	bl	6346c <getTwoInputs>
   62d48:	f94007e9 	ldr	x9, [sp, #8]
   62d4c:	b9400521 	ldr	w1, [x9, #4]
   62d50:	b9400122 	ldr	w2, [x9]
   62d54:	b9400528 	ldr	w8, [x9, #4]
   62d58:	b9400129 	ldr	w9, [x9]
   62d5c:	1ac90d03 	sdiv	w3, w8, w9
   62d60:	d0ffffe0 	adrp	x0, 60000 <note_end+0x5fca8>
   62d64:	91264000 	add	x0, x0, #0x990
   62d68:	9400054e 	bl	642a0 <printf@plt>
   62d6c:	14000001 	b	62d70 <Arithmetic+0x1e4>
   62d70:	d0ffffe0 	adrp	x0, 60000 <note_end+0x5fca8>
   62d74:	91223800 	add	x0, x0, #0x88e
   62d78:	97fffe73 	bl	62744 <Confirm>
   62d7c:	35fffe00 	cbnz	w0, 62d3c <Arithmetic+0x1b0>
   62d80:	14000001 	b	62d84 <Arithmetic+0x1f8>
   62d84:	14000022 	b	62e0c <Arithmetic+0x280>
   62d88:	94000218 	bl	635e8 <clrscr>
   62d8c:	d0ffffe0 	adrp	x0, 60000 <note_end+0x5fca8>
   62d90:	91281c00 	add	x0, x0, #0xa07
   62d94:	94000543 	bl	642a0 <printf@plt>
   62d98:	14000001 	b	62d9c <Arithmetic+0x210>
   62d9c:	d0ffffe0 	adrp	x0, 60000 <note_end+0x5fca8>
   62da0:	9139bc00 	add	x0, x0, #0xe6f
   62da4:	9400053f 	bl	642a0 <printf@plt>
   62da8:	940001c5 	bl	634bc <inInt>
   62dac:	f94007e8 	ldr	x8, [sp, #8]
   62db0:	b9000500 	str	w0, [x8, #4]
   62db4:	d0ffffe0 	adrp	x0, 60000 <note_end+0x5fca8>
   62db8:	9135f800 	add	x0, x0, #0xd7e
   62dbc:	94000539 	bl	642a0 <printf@plt>
   62dc0:	940001bf 	bl	634bc <inInt>
   62dc4:	f94007e9 	ldr	x9, [sp, #8]
   62dc8:	b9000120 	str	w0, [x9]
   62dcc:	b9400528 	ldr	w8, [x9, #4]
   62dd0:	b9400129 	ldr	w9, [x9]
   62dd4:	1b097d01 	mul	w1, w8, w9
   62dd8:	d0ffffe0 	adrp	x0, 60000 <note_end+0x5fca8>
   62ddc:	912ae000 	add	x0, x0, #0xab8
   62de0:	94000530 	bl	642a0 <printf@plt>
   62de4:	14000001 	b	62de8 <Arithmetic+0x25c>
   62de8:	d0ffffe0 	adrp	x0, 60000 <note_end+0x5fca8>
   62dec:	91203000 	add	x0, x0, #0x80c
   62df0:	97fffe55 	bl	62744 <Confirm>
   62df4:	35fffd40 	cbnz	w0, 62d9c <Arithmetic+0x210>
   62df8:	14000001 	b	62dfc <Arithmetic+0x270>
   62dfc:	14000004 	b	62e0c <Arithmetic+0x280>
   62e00:	f94007e8 	ldr	x8, [sp, #8]
   62e04:	b900091f 	str	wzr, [x8, #8]
   62e08:	14000005 	b	62e1c <Arithmetic+0x290>
   62e0c:	f94007e9 	ldr	x9, [sp, #8]
   62e10:	52800028 	mov	w8, #0x1                   	// #1
   62e14:	b9000928 	str	w8, [x9, #8]
   62e18:	14000001 	b	62e1c <Arithmetic+0x290>
   62e1c:	f94007e8 	ldr	x8, [sp, #8]
   62e20:	b9400900 	ldr	w0, [x8, #8]
   62e24:	914043ff 	add	sp, sp, #0x10, lsl #12
   62e28:	9100c3ff 	add	sp, sp, #0x30
   62e2c:	f9400bfc 	ldr	x28, [sp, #16]
   62e30:	a8c27bfd 	ldp	x29, x30, [sp], #32
   62e34:	d65f03c0 	ret

0000000000062e38 <Arrays>:
   62e38:	a9be7bfd 	stp	x29, x30, [sp, #-32]!
   62e3c:	f9000bfc 	str	x28, [sp, #16]
   62e40:	910003fd 	mov	x29, sp
   62e44:	d14043ff 	sub	sp, sp, #0x10, lsl #12
   62e48:	d10083ff 	sub	sp, sp, #0x20
   62e4c:	d10023a8 	sub	x8, x29, #0x8
   62e50:	f9000be8 	str	x8, [sp, #16]
   62e54:	910063e0 	add	x0, sp, #0x18
   62e58:	d0fffde1 	adrp	x1, 20000 <note_end+0x1fca8>
   62e5c:	911d0021 	add	x1, x1, #0x740
   62e60:	d2a00022 	mov	x2, #0x10000               	// #65536
   62e64:	94000517 	bl	642c0 <memcpy@plt>
   62e68:	940001e0 	bl	635e8 <clrscr>
   62e6c:	d0ffffe0 	adrp	x0, 60000 <note_end+0x5fca8>
   62e70:	913a4400 	add	x0, x0, #0xe91
   62e74:	9400050b 	bl	642a0 <printf@plt>
   62e78:	f0ffffe0 	adrp	x0, 61000 <note_end+0x60ca8>
   62e7c:	91004400 	add	x0, x0, #0x11
   62e80:	97fffea6 	bl	62918 <Message>
   62e84:	340000c0 	cbz	w0, 62e9c <Arrays+0x64>
   62e88:	14000001 	b	62e8c <Arrays+0x54>
   62e8c:	d0ffffe0 	adrp	x0, 60000 <note_end+0x5fca8>
   62e90:	9139b400 	add	x0, x0, #0xe6d
   62e94:	94000503 	bl	642a0 <printf@plt>
   62e98:	14000001 	b	62e9c <Arrays+0x64>
   62e9c:	90000028 	adrp	x8, 66000 <_DYNAMIC+0xca0>
   62ea0:	b945d101 	ldr	w1, [x8, #1488]
   62ea4:	f0ffffe0 	adrp	x0, 61000 <note_end+0x60ca8>
   62ea8:	9102d800 	add	x0, x0, #0xb6
   62eac:	528000a2 	mov	w2, #0x5                   	// #5
   62eb0:	b9000fe2 	str	w2, [sp, #12]
   62eb4:	940004fb 	bl	642a0 <printf@plt>
   62eb8:	b9400fe1 	ldr	w1, [sp, #12]
   62ebc:	910063e0 	add	x0, sp, #0x18
   62ec0:	97fffed5 	bl	62a14 <displayMenu>
   62ec4:	f9400be8 	ldr	x8, [sp, #16]
   62ec8:	b9000100 	str	w0, [x8]
   62ecc:	b9400108 	ldr	w8, [x8]
   62ed0:	71000508 	subs	w8, w8, #0x1
   62ed4:	54000101 	b.ne	62ef4 <Arrays+0xbc>  // b.any
   62ed8:	14000001 	b	62edc <Arrays+0xa4>
   62edc:	14000001 	b	62ee0 <Arrays+0xa8>
   62ee0:	940001c9 	bl	63604 <Arrays_One>
   62ee4:	34000060 	cbz	w0, 62ef0 <Arrays+0xb8>
   62ee8:	14000001 	b	62eec <Arrays+0xb4>
   62eec:	17fffffd 	b	62ee0 <Arrays+0xa8>
   62ef0:	14000001 	b	62ef4 <Arrays+0xbc>
   62ef4:	f9400be8 	ldr	x8, [sp, #16]
   62ef8:	b9400108 	ldr	w8, [x8]
   62efc:	71000908 	subs	w8, w8, #0x2
   62f00:	54000101 	b.ne	62f20 <Arrays+0xe8>  // b.any
   62f04:	14000001 	b	62f08 <Arrays+0xd0>
   62f08:	14000001 	b	62f0c <Arrays+0xd4>
   62f0c:	940002b4 	bl	639dc <Arrays_Two>
   62f10:	34000060 	cbz	w0, 62f1c <Arrays+0xe4>
   62f14:	14000001 	b	62f18 <Arrays+0xe0>
   62f18:	17fffffd 	b	62f0c <Arrays+0xd4>
   62f1c:	14000001 	b	62f20 <Arrays+0xe8>
   62f20:	f9400be8 	ldr	x8, [sp, #16]
   62f24:	b9400108 	ldr	w8, [x8]
   62f28:	71000d08 	subs	w8, w8, #0x3
   62f2c:	54000101 	b.ne	62f4c <Arrays+0x114>  // b.any
   62f30:	14000001 	b	62f34 <Arrays+0xfc>
   62f34:	14000001 	b	62f38 <Arrays+0x100>
   62f38:	94000352 	bl	63c80 <Arrays_Three>
   62f3c:	34000060 	cbz	w0, 62f48 <Arrays+0x110>
   62f40:	14000001 	b	62f44 <Arrays+0x10c>
   62f44:	17fffffd 	b	62f38 <Arrays+0x100>
   62f48:	14000001 	b	62f4c <Arrays+0x114>
   62f4c:	f9400be8 	ldr	x8, [sp, #16]
   62f50:	b9400108 	ldr	w8, [x8]
   62f54:	71001108 	subs	w8, w8, #0x4
   62f58:	54000101 	b.ne	62f78 <Arrays+0x140>  // b.any
   62f5c:	14000001 	b	62f60 <Arrays+0x128>
   62f60:	14000001 	b	62f64 <Arrays+0x12c>
   62f64:	940003cc 	bl	63e94 <Arrays_Four>
   62f68:	34000060 	cbz	w0, 62f74 <Arrays+0x13c>
   62f6c:	14000001 	b	62f70 <Arrays+0x138>
   62f70:	17fffffd 	b	62f64 <Arrays+0x12c>
   62f74:	14000001 	b	62f78 <Arrays+0x140>
   62f78:	f9400be8 	ldr	x8, [sp, #16]
   62f7c:	b9400108 	ldr	w8, [x8]
   62f80:	71001508 	subs	w8, w8, #0x5
   62f84:	540000a1 	b.ne	62f98 <Arrays+0x160>  // b.any
   62f88:	14000001 	b	62f8c <Arrays+0x154>
   62f8c:	f9400be8 	ldr	x8, [sp, #16]
   62f90:	b900051f 	str	wzr, [x8, #4]
   62f94:	14000005 	b	62fa8 <Arrays+0x170>
   62f98:	f9400be9 	ldr	x9, [sp, #16]
   62f9c:	52800028 	mov	w8, #0x1                   	// #1
   62fa0:	b9000528 	str	w8, [x9, #4]
   62fa4:	14000001 	b	62fa8 <Arrays+0x170>
   62fa8:	f9400be8 	ldr	x8, [sp, #16]
   62fac:	b9400500 	ldr	w0, [x8, #4]
   62fb0:	914043ff 	add	sp, sp, #0x10, lsl #12
   62fb4:	910083ff 	add	sp, sp, #0x20
   62fb8:	f9400bfc 	ldr	x28, [sp, #16]
   62fbc:	a8c27bfd 	ldp	x29, x30, [sp], #32
   62fc0:	d65f03c0 	ret

0000000000062fc4 <Recursion>:
   62fc4:	a9be7bfd 	stp	x29, x30, [sp, #-32]!
   62fc8:	f9000bfc 	str	x28, [sp, #16]
   62fcc:	910003fd 	mov	x29, sp
   62fd0:	d14043ff 	sub	sp, sp, #0x10, lsl #12
   62fd4:	d100c3ff 	sub	sp, sp, #0x30
   62fd8:	d10023a8 	sub	x8, x29, #0x8
   62fdc:	f90007e8 	str	x8, [sp, #8]
   62fe0:	52800028 	mov	w8, #0x1                   	// #1
   62fe4:	b90017e8 	str	w8, [sp, #20]
   62fe8:	9100a3e0 	add	x0, sp, #0x28
   62fec:	f9000fe0 	str	x0, [sp, #24]
   62ff0:	d0fffe61 	adrp	x1, 30000 <note_end+0x2fca8>
   62ff4:	911d0021 	add	x1, x1, #0x740
   62ff8:	d2a00022 	mov	x2, #0x10000               	// #65536
   62ffc:	940004b1 	bl	642c0 <memcpy@plt>
   63000:	9400017a 	bl	635e8 <clrscr>
   63004:	d0ffffe0 	adrp	x0, 61000 <note_end+0x60ca8>
   63008:	9105d400 	add	x0, x0, #0x175
   6300c:	940004a5 	bl	642a0 <printf@plt>
   63010:	f9400fe0 	ldr	x0, [sp, #24]
   63014:	52800061 	mov	w1, #0x3                   	// #3
   63018:	97fffe7f 	bl	62a14 <displayMenu>
   6301c:	b90027e0 	str	w0, [sp, #36]
   63020:	71000408 	subs	w8, w0, #0x1
   63024:	54000140 	b.eq	6304c <Recursion+0x88>  // b.none
   63028:	14000001 	b	6302c <Recursion+0x68>
   6302c:	b94027e8 	ldr	w8, [sp, #36]
   63030:	71000908 	subs	w8, w8, #0x2
   63034:	54000440 	b.eq	630bc <Recursion+0xf8>  // b.none
   63038:	14000001 	b	6303c <Recursion+0x78>
   6303c:	b94027e8 	ldr	w8, [sp, #36]
   63040:	71000d08 	subs	w8, w8, #0x3
   63044:	540007a0 	b.eq	63138 <Recursion+0x174>  // b.none
   63048:	1400003f 	b	63144 <Recursion+0x180>
   6304c:	94000167 	bl	635e8 <clrscr>
   63050:	b0ffffe0 	adrp	x0, 60000 <note_end+0x5fca8>
   63054:	91354400 	add	x0, x0, #0xd51
   63058:	94000492 	bl	642a0 <printf@plt>
   6305c:	14000001 	b	63060 <Recursion+0x9c>
   63060:	b0ffffe0 	adrp	x0, 60000 <note_end+0x5fca8>
   63064:	913aa400 	add	x0, x0, #0xea9
   63068:	9400048e 	bl	642a0 <printf@plt>
   6306c:	94000114 	bl	634bc <inInt>
   63070:	f94007e8 	ldr	x8, [sp, #8]
   63074:	b9000100 	str	w0, [x8]
   63078:	b9400108 	ldr	w8, [x8]
   6307c:	71000508 	subs	w8, w8, #0x1
   63080:	5400006c 	b.gt	6308c <Recursion+0xc8>
   63084:	14000001 	b	63088 <Recursion+0xc4>
   63088:	1400000c 	b	630b8 <Recursion+0xf4>
   6308c:	f94007e8 	ldr	x8, [sp, #8]
   63090:	b9400100 	ldr	w0, [x8]
   63094:	94000122 	bl	6351c <Recursion_Factor>
   63098:	aa0003e1 	mov	x1, x0
   6309c:	b0ffffe0 	adrp	x0, 60000 <note_end+0x5fca8>
   630a0:	913e4400 	add	x0, x0, #0xf91
   630a4:	9400047f 	bl	642a0 <printf@plt>
   630a8:	14000001 	b	630ac <Recursion+0xe8>
   630ac:	b94017e8 	ldr	w8, [sp, #20]
   630b0:	3707fd88 	tbnz	w8, #0, 63060 <Recursion+0x9c>
   630b4:	14000001 	b	630b8 <Recursion+0xf4>
   630b8:	14000023 	b	63144 <Recursion+0x180>
   630bc:	9400014b 	bl	635e8 <clrscr>
   630c0:	d0ffffe0 	adrp	x0, 61000 <note_end+0x60ca8>
   630c4:	9101f800 	add	x0, x0, #0x7e
   630c8:	94000476 	bl	642a0 <printf@plt>
   630cc:	14000001 	b	630d0 <Recursion+0x10c>
   630d0:	b0ffffe0 	adrp	x0, 60000 <note_end+0x5fca8>
   630d4:	913c7400 	add	x0, x0, #0xf1d
   630d8:	94000472 	bl	642a0 <printf@plt>
   630dc:	b0ffffe0 	adrp	x0, 60000 <note_end+0x5fca8>
   630e0:	912c7000 	add	x0, x0, #0xb1c
   630e4:	9400046f 	bl	642a0 <printf@plt>
   630e8:	940000f5 	bl	634bc <inInt>
   630ec:	f94007e8 	ldr	x8, [sp, #8]
   630f0:	b9000100 	str	w0, [x8]
   630f4:	b9400108 	ldr	w8, [x8]
   630f8:	71000508 	subs	w8, w8, #0x1
   630fc:	5400006c 	b.gt	63108 <Recursion+0x144>
   63100:	14000001 	b	63104 <Recursion+0x140>
   63104:	1400000c 	b	63134 <Recursion+0x170>
   63108:	f94007e8 	ldr	x8, [sp, #8]
   6310c:	b9400100 	ldr	w0, [x8]
   63110:	9400011b 	bl	6357c <Recursion_Fibonacci>
   63114:	aa0003e1 	mov	x1, x0
   63118:	b0ffffe0 	adrp	x0, 60000 <note_end+0x5fca8>
   6311c:	91299400 	add	x0, x0, #0xa65
   63120:	94000460 	bl	642a0 <printf@plt>
   63124:	14000001 	b	63128 <Recursion+0x164>
   63128:	b94017e8 	ldr	w8, [sp, #20]
   6312c:	3707fd28 	tbnz	w8, #0, 630d0 <Recursion+0x10c>
   63130:	14000001 	b	63134 <Recursion+0x170>
   63134:	14000004 	b	63144 <Recursion+0x180>
   63138:	f94007e8 	ldr	x8, [sp, #8]
   6313c:	b900051f 	str	wzr, [x8, #4]
   63140:	14000005 	b	63154 <Recursion+0x190>
   63144:	f94007e9 	ldr	x9, [sp, #8]
   63148:	52800028 	mov	w8, #0x1                   	// #1
   6314c:	b9000528 	str	w8, [x9, #4]
   63150:	14000001 	b	63154 <Recursion+0x190>
   63154:	f94007e8 	ldr	x8, [sp, #8]
   63158:	b9400500 	ldr	w0, [x8, #4]
   6315c:	914043ff 	add	sp, sp, #0x10, lsl #12
   63160:	9100c3ff 	add	sp, sp, #0x30
   63164:	f9400bfc 	ldr	x28, [sp, #16]
   63168:	a8c27bfd 	ldp	x29, x30, [sp], #32
   6316c:	d65f03c0 	ret

0000000000063170 <Strings>:
   63170:	a9be7bfd 	stp	x29, x30, [sp, #-32]!
   63174:	f9000bfc 	str	x28, [sp, #16]
   63178:	910003fd 	mov	x29, sp
   6317c:	d14043ff 	sub	sp, sp, #0x10, lsl #12
   63180:	d10743ff 	sub	sp, sp, #0x1d0
   63184:	d10033a8 	sub	x8, x29, #0xc
   63188:	f9001be8 	str	x8, [sp, #48]
   6318c:	9100f3e0 	add	x0, sp, #0x3c
   63190:	b0fffee1 	adrp	x1, 40000 <note_end+0x3fca8>
   63194:	911d0021 	add	x1, x1, #0x740
   63198:	d2a00022 	mov	x2, #0x10000               	// #65536
   6319c:	94000449 	bl	642c0 <memcpy@plt>
   631a0:	14000001 	b	631a4 <Strings+0x34>
   631a4:	94000111 	bl	635e8 <clrscr>
   631a8:	b0ffffe0 	adrp	x0, 60000 <note_end+0x5fca8>
   631ac:	91334000 	add	x0, x0, #0xcd0
   631b0:	9400043c 	bl	642a0 <printf@plt>
   631b4:	d0ffffe0 	adrp	x0, 61000 <note_end+0x60ca8>
   631b8:	91064400 	add	x0, x0, #0x191
   631bc:	94000439 	bl	642a0 <printf@plt>
   631c0:	b0ffffe0 	adrp	x0, 60000 <note_end+0x5fca8>
   631c4:	912cbc00 	add	x0, x0, #0xb2f
   631c8:	94000436 	bl	642a0 <printf@plt>
   631cc:	d0ffffe0 	adrp	x0, 61000 <note_end+0x60ca8>
   631d0:	91004800 	add	x0, x0, #0x12
   631d4:	94000433 	bl	642a0 <printf@plt>
   631d8:	b0ffffe0 	adrp	x0, 60000 <note_end+0x5fca8>
   631dc:	911e0000 	add	x0, x0, #0x780
   631e0:	914043e1 	add	x1, sp, #0x10, lsl #12
   631e4:	9100f021 	add	x1, x1, #0x3c
   631e8:	f90013e1 	str	x1, [sp, #32]
   631ec:	94000431 	bl	642b0 <scanf@plt>
   631f0:	f94013e2 	ldr	x2, [sp, #32]
   631f4:	d10233a0 	sub	x0, x29, #0x8c
   631f8:	f90017e0 	str	x0, [sp, #40]
   631fc:	b0ffffe1 	adrp	x1, 60000 <note_end+0x5fca8>
   63200:	91267821 	add	x1, x1, #0x99e
   63204:	9400043b 	bl	642f0 <sprintf@plt>
   63208:	f94017e0 	ldr	x0, [sp, #40]
   6320c:	b0ffffe1 	adrp	x1, 60000 <note_end+0x5fca8>
   63210:	9130a421 	add	x1, x1, #0xc29
   63214:	9400042f 	bl	642d0 <strcmp@plt>
   63218:	350000a0 	cbnz	w0, 6322c <Strings+0xbc>
   6321c:	14000001 	b	63220 <Strings+0xb0>
   63220:	f9401be8 	ldr	x8, [sp, #48]
   63224:	b900091f 	str	wzr, [x8, #8]
   63228:	1400008a 	b	63450 <Strings+0x2e0>
   6322c:	d10233a0 	sub	x0, x29, #0x8c
   63230:	94000438 	bl	64310 <strlen@plt>
   63234:	f9401be8 	ldr	x8, [sp, #48]
   63238:	2a0003e9 	mov	w9, w0
   6323c:	b9000109 	str	w9, [x8]
   63240:	b9400101 	ldr	w1, [x8]
   63244:	b0ffffe0 	adrp	x0, 60000 <note_end+0x5fca8>
   63248:	91268400 	add	x0, x0, #0x9a1
   6324c:	94000415 	bl	642a0 <printf@plt>
   63250:	14000001 	b	63254 <Strings+0xe4>
   63254:	9100f3e0 	add	x0, sp, #0x3c
   63258:	52800061 	mov	w1, #0x3                   	// #3
   6325c:	97fffdee 	bl	62a14 <displayMenu>
   63260:	f9401be8 	ldr	x8, [sp, #48]
   63264:	b9000500 	str	w0, [x8, #4]
   63268:	b9400508 	ldr	w8, [x8, #4]
   6326c:	71000508 	subs	w8, w8, #0x1
   63270:	54000061 	b.ne	6327c <Strings+0x10c>  // b.any
   63274:	14000001 	b	63278 <Strings+0x108>
   63278:	14000075 	b	6344c <Strings+0x2dc>
   6327c:	f9401be8 	ldr	x8, [sp, #48]
   63280:	b9400508 	ldr	w8, [x8, #4]
   63284:	71000908 	subs	w8, w8, #0x2
   63288:	54000981 	b.ne	633b8 <Strings+0x248>  // b.any
   6328c:	14000001 	b	63290 <Strings+0x120>
   63290:	940000d6 	bl	635e8 <clrscr>
   63294:	d10233a0 	sub	x0, x29, #0x8c
   63298:	f9000fe0 	str	x0, [sp, #24]
   6329c:	9400041d 	bl	64310 <strlen@plt>
   632a0:	f9401be9 	ldr	x9, [sp, #48]
   632a4:	2a0003e8 	mov	w8, w0
   632a8:	b9000128 	str	w8, [x9]
   632ac:	b0ffffe0 	adrp	x0, 60000 <note_end+0x5fca8>
   632b0:	91334000 	add	x0, x0, #0xcd0
   632b4:	940003fb 	bl	642a0 <printf@plt>
   632b8:	b0ffffe0 	adrp	x0, 60000 <note_end+0x5fca8>
   632bc:	9129f800 	add	x0, x0, #0xa7e
   632c0:	940003f8 	bl	642a0 <printf@plt>
   632c4:	d0ffffe0 	adrp	x0, 61000 <note_end+0x60ca8>
   632c8:	91004800 	add	x0, x0, #0x12
   632cc:	940003f5 	bl	642a0 <printf@plt>
   632d0:	f9401be8 	ldr	x8, [sp, #48]
   632d4:	f9400fe1 	ldr	x1, [sp, #24]
   632d8:	b9400102 	ldr	w2, [x8]
   632dc:	b0ffffe0 	adrp	x0, 60000 <note_end+0x5fca8>
   632e0:	911e2800 	add	x0, x0, #0x78a
   632e4:	940003ef 	bl	642a0 <printf@plt>
   632e8:	b0ffffe0 	adrp	x0, 60000 <note_end+0x5fca8>
   632ec:	913e7800 	add	x0, x0, #0xf9e
   632f0:	940003ec 	bl	642a0 <printf@plt>
   632f4:	b0ffffe0 	adrp	x0, 60000 <note_end+0x5fca8>
   632f8:	911e0000 	add	x0, x0, #0x780
   632fc:	914043e1 	add	x1, sp, #0x10, lsl #12
   63300:	9100f021 	add	x1, x1, #0x3c
   63304:	f90007e1 	str	x1, [sp, #8]
   63308:	940003ea 	bl	642b0 <scanf@plt>
   6330c:	f94007e2 	ldr	x2, [sp, #8]
   63310:	914043e0 	add	x0, sp, #0x10, lsl #12
   63314:	91031000 	add	x0, x0, #0xc4
   63318:	f9000be0 	str	x0, [sp, #16]
   6331c:	b0ffffe1 	adrp	x1, 60000 <note_end+0x5fca8>
   63320:	91267821 	add	x1, x1, #0x99e
   63324:	940003f3 	bl	642f0 <sprintf@plt>
   63328:	f9400be0 	ldr	x0, [sp, #16]
   6332c:	940003f9 	bl	64310 <strlen@plt>
   63330:	f9401be8 	ldr	x8, [sp, #48]
   63334:	2a0003e9 	mov	w9, w0
   63338:	b9000109 	str	w9, [x8]
   6333c:	b9400101 	ldr	w1, [x8]
   63340:	b0ffffe0 	adrp	x0, 60000 <note_end+0x5fca8>
   63344:	913d3c00 	add	x0, x0, #0xf4f
   63348:	940003d6 	bl	642a0 <printf@plt>
   6334c:	f9400be1 	ldr	x1, [sp, #16]
   63350:	f9400fe0 	ldr	x0, [sp, #24]
   63354:	940003df 	bl	642d0 <strcmp@plt>
   63358:	34000140 	cbz	w0, 63380 <Strings+0x210>
   6335c:	14000001 	b	63360 <Strings+0x1f0>
   63360:	914043e0 	add	x0, sp, #0x10, lsl #12
   63364:	9102f000 	add	x0, x0, #0xbc
   63368:	b0ffffe1 	adrp	x1, 60000 <note_end+0x5fca8>
   6336c:	91267821 	add	x1, x1, #0x99e
   63370:	b0ffffe2 	adrp	x2, 60000 <note_end+0x5fca8>
   63374:	912d0c42 	add	x2, x2, #0xb43
   63378:	940003de 	bl	642f0 <sprintf@plt>
   6337c:	14000009 	b	633a0 <Strings+0x230>
   63380:	914043e0 	add	x0, sp, #0x10, lsl #12
   63384:	9102f000 	add	x0, x0, #0xbc
   63388:	b0ffffe1 	adrp	x1, 60000 <note_end+0x5fca8>
   6338c:	91267821 	add	x1, x1, #0x99e
   63390:	b0ffffe2 	adrp	x2, 60000 <note_end+0x5fca8>
   63394:	913b7c42 	add	x2, x2, #0xedf
   63398:	940003d6 	bl	642f0 <sprintf@plt>
   6339c:	14000001 	b	633a0 <Strings+0x230>
   633a0:	b0ffffe0 	adrp	x0, 60000 <note_end+0x5fca8>
   633a4:	9126dc00 	add	x0, x0, #0x9b7
   633a8:	914043e1 	add	x1, sp, #0x10, lsl #12
   633ac:	9102f021 	add	x1, x1, #0xbc
   633b0:	940003bc 	bl	642a0 <printf@plt>
   633b4:	14000001 	b	633b8 <Strings+0x248>
   633b8:	f9401be8 	ldr	x8, [sp, #48]
   633bc:	b9400508 	ldr	w8, [x8, #4]
   633c0:	71000d08 	subs	w8, w8, #0x3
   633c4:	54000421 	b.ne	63448 <Strings+0x2d8>  // b.any
   633c8:	14000001 	b	633cc <Strings+0x25c>
   633cc:	b0ffffe0 	adrp	x0, 60000 <note_end+0x5fca8>
   633d0:	912fa800 	add	x0, x0, #0xbea
   633d4:	97fffcdc 	bl	62744 <Confirm>
   633d8:	340000a0 	cbz	w0, 633ec <Strings+0x27c>
   633dc:	14000001 	b	633e0 <Strings+0x270>
   633e0:	f9401be8 	ldr	x8, [sp, #48]
   633e4:	b900091f 	str	wzr, [x8, #8]
   633e8:	1400001a 	b	63450 <Strings+0x2e0>
   633ec:	9400007f 	bl	635e8 <clrscr>
   633f0:	d10233a0 	sub	x0, x29, #0x8c
   633f4:	f90003e0 	str	x0, [sp]
   633f8:	940003c6 	bl	64310 <strlen@plt>
   633fc:	f9401be9 	ldr	x9, [sp, #48]
   63400:	2a0003e8 	mov	w8, w0
   63404:	b9000128 	str	w8, [x9]
   63408:	b0ffffe0 	adrp	x0, 60000 <note_end+0x5fca8>
   6340c:	91334000 	add	x0, x0, #0xcd0
   63410:	940003a4 	bl	642a0 <printf@plt>
   63414:	b0ffffe0 	adrp	x0, 60000 <note_end+0x5fca8>
   63418:	9129f800 	add	x0, x0, #0xa7e
   6341c:	940003a1 	bl	642a0 <printf@plt>
   63420:	d0ffffe0 	adrp	x0, 61000 <note_end+0x60ca8>
   63424:	91004800 	add	x0, x0, #0x12
   63428:	9400039e 	bl	642a0 <printf@plt>
   6342c:	f9401be8 	ldr	x8, [sp, #48]
   63430:	f94003e1 	ldr	x1, [sp]
   63434:	b9400102 	ldr	w2, [x8]
   63438:	b0ffffe0 	adrp	x0, 60000 <note_end+0x5fca8>
   6343c:	911e2800 	add	x0, x0, #0x78a
   63440:	94000398 	bl	642a0 <printf@plt>
   63444:	14000001 	b	63448 <Strings+0x2d8>
   63448:	17ffff83 	b	63254 <Strings+0xe4>
   6344c:	17ffff56 	b	631a4 <Strings+0x34>
   63450:	f9401be8 	ldr	x8, [sp, #48]
   63454:	b9400900 	ldr	w0, [x8, #8]
   63458:	914043ff 	add	sp, sp, #0x10, lsl #12
   6345c:	910743ff 	add	sp, sp, #0x1d0
   63460:	f9400bfc 	ldr	x28, [sp, #16]
   63464:	a8c27bfd 	ldp	x29, x30, [sp], #32
   63468:	d65f03c0 	ret

000000000006346c <getTwoInputs>:
   6346c:	d10083ff 	sub	sp, sp, #0x20
   63470:	a9017bfd 	stp	x29, x30, [sp, #16]
   63474:	910043fd 	add	x29, sp, #0x10
   63478:	f90007e0 	str	x0, [sp, #8]
   6347c:	f90003e1 	str	x1, [sp]
   63480:	b0ffffe0 	adrp	x0, 60000 <note_end+0x5fca8>
   63484:	9131a800 	add	x0, x0, #0xc6a
   63488:	94000386 	bl	642a0 <printf@plt>
   6348c:	9400000c 	bl	634bc <inInt>
   63490:	f94007e8 	ldr	x8, [sp, #8]
   63494:	b9000100 	str	w0, [x8]
   63498:	b0ffffe0 	adrp	x0, 60000 <note_end+0x5fca8>
   6349c:	91246c00 	add	x0, x0, #0x91b
   634a0:	94000380 	bl	642a0 <printf@plt>
   634a4:	94000006 	bl	634bc <inInt>
   634a8:	f94003e8 	ldr	x8, [sp]
   634ac:	b9000100 	str	w0, [x8]
   634b0:	a9417bfd 	ldp	x29, x30, [sp, #16]
   634b4:	910083ff 	add	sp, sp, #0x20
   634b8:	d65f03c0 	ret

00000000000634bc <inInt>:
   634bc:	d100c3ff 	sub	sp, sp, #0x30
   634c0:	a9027bfd 	stp	x29, x30, [sp, #32]
   634c4:	910083fd 	add	x29, sp, #0x20
   634c8:	14000001 	b	634cc <inInt+0x10>
   634cc:	b0ffffe0 	adrp	x0, 60000 <note_end+0x5fca8>
   634d0:	9133a800 	add	x0, x0, #0xcea
   634d4:	d10033a1 	sub	x1, x29, #0xc
   634d8:	f90003e1 	str	x1, [sp]
   634dc:	94000375 	bl	642b0 <scanf@plt>
   634e0:	f94003e0 	ldr	x0, [sp]
   634e4:	910023e1 	add	x1, sp, #0x8
   634e8:	52800142 	mov	w2, #0xa                   	// #10
   634ec:	94000385 	bl	64300 <strtol@plt>
   634f0:	2a0003e8 	mov	w8, w0
   634f4:	b81fc3a8 	stur	w8, [x29, #-4]
   634f8:	14000001 	b	634fc <inInt+0x40>
   634fc:	f94007e8 	ldr	x8, [sp, #8]
   63500:	39400108 	ldrb	w8, [x8]
   63504:	35fffe48 	cbnz	w8, 634cc <inInt+0x10>
   63508:	14000001 	b	6350c <inInt+0x50>
   6350c:	b85fc3a0 	ldur	w0, [x29, #-4]
   63510:	a9427bfd 	ldp	x29, x30, [sp, #32]
   63514:	9100c3ff 	add	sp, sp, #0x30
   63518:	d65f03c0 	ret

000000000006351c <Recursion_Factor>:
   6351c:	d100c3ff 	sub	sp, sp, #0x30
   63520:	a9027bfd 	stp	x29, x30, [sp, #32]
   63524:	910083fd 	add	x29, sp, #0x20
   63528:	b81f43a0 	stur	w0, [x29, #-12]
   6352c:	b85f43a8 	ldur	w8, [x29, #-12]
   63530:	71000508 	subs	w8, w8, #0x1
   63534:	540000ac 	b.gt	63548 <Recursion_Factor+0x2c>
   63538:	14000001 	b	6353c <Recursion_Factor+0x20>
   6353c:	b89f43a8 	ldursw	x8, [x29, #-12]
   63540:	f81f83a8 	stur	x8, [x29, #-8]
   63544:	1400000a 	b	6356c <Recursion_Factor+0x50>
   63548:	b89f43a8 	ldursw	x8, [x29, #-12]
   6354c:	f90007e8 	str	x8, [sp, #8]
   63550:	b85f43a8 	ldur	w8, [x29, #-12]
   63554:	71000500 	subs	w0, w8, #0x1
   63558:	97fffff1 	bl	6351c <Recursion_Factor>
   6355c:	f94007e8 	ldr	x8, [sp, #8]
   63560:	9b007d08 	mul	x8, x8, x0
   63564:	f81f83a8 	stur	x8, [x29, #-8]
   63568:	14000001 	b	6356c <Recursion_Factor+0x50>
   6356c:	f85f83a0 	ldur	x0, [x29, #-8]
   63570:	a9427bfd 	ldp	x29, x30, [sp, #32]
   63574:	9100c3ff 	add	sp, sp, #0x30
   63578:	d65f03c0 	ret

000000000006357c <Recursion_Fibonacci>:
   6357c:	d100c3ff 	sub	sp, sp, #0x30
   63580:	a9027bfd 	stp	x29, x30, [sp, #32]
   63584:	910083fd 	add	x29, sp, #0x20
   63588:	b81f43a0 	stur	w0, [x29, #-12]
   6358c:	b85f43a8 	ldur	w8, [x29, #-12]
   63590:	71000508 	subs	w8, w8, #0x1
   63594:	540000ac 	b.gt	635a8 <Recursion_Fibonacci+0x2c>
   63598:	14000001 	b	6359c <Recursion_Fibonacci+0x20>
   6359c:	b89f43a8 	ldursw	x8, [x29, #-12]
   635a0:	f81f83a8 	stur	x8, [x29, #-8]
   635a4:	1400000d 	b	635d8 <Recursion_Fibonacci+0x5c>
   635a8:	b85f43a8 	ldur	w8, [x29, #-12]
   635ac:	71000500 	subs	w0, w8, #0x1
   635b0:	97fffff3 	bl	6357c <Recursion_Fibonacci>
   635b4:	f90007e0 	str	x0, [sp, #8]
   635b8:	b85f43a8 	ldur	w8, [x29, #-12]
   635bc:	71000900 	subs	w0, w8, #0x2
   635c0:	97ffffef 	bl	6357c <Recursion_Fibonacci>
   635c4:	aa0003e8 	mov	x8, x0
   635c8:	f94007e0 	ldr	x0, [sp, #8]
   635cc:	8b080008 	add	x8, x0, x8
   635d0:	f81f83a8 	stur	x8, [x29, #-8]
   635d4:	14000001 	b	635d8 <Recursion_Fibonacci+0x5c>
   635d8:	f85f83a0 	ldur	x0, [x29, #-8]
   635dc:	a9427bfd 	ldp	x29, x30, [sp, #32]
   635e0:	9100c3ff 	add	sp, sp, #0x30
   635e4:	d65f03c0 	ret

00000000000635e8 <clrscr>:
   635e8:	a9bf7bfd 	stp	x29, x30, [sp, #-16]!
   635ec:	910003fd 	mov	x29, sp
   635f0:	b0ffffe0 	adrp	x0, 60000 <note_end+0x5fca8>
   635f4:	9131fc00 	add	x0, x0, #0xc7f
   635f8:	9400034a 	bl	64320 <system@plt>
   635fc:	a8c17bfd 	ldp	x29, x30, [sp], #16
   63600:	d65f03c0 	ret

0000000000063604 <Arrays_One>:
   63604:	a9be7bfd 	stp	x29, x30, [sp, #-32]!
   63608:	f9000bfc 	str	x28, [sp, #16]
   6360c:	910003fd 	mov	x29, sp
   63610:	d1400fff 	sub	sp, sp, #0x3, lsl #12
   63614:	d110c3ff 	sub	sp, sp, #0x430
   63618:	91400fe0 	add	x0, sp, #0x3, lsl #12
   6361c:	91009000 	add	x0, x0, #0x24
   63620:	2a1f03e1 	mov	w1, wzr
   63624:	b9001fe1 	str	w1, [sp, #28]
   63628:	d2808002 	mov	x2, #0x400                 	// #1024
   6362c:	9400032d 	bl	642e0 <memset@plt>
   63630:	b93023ff 	str	wzr, [sp, #12320]
   63634:	97ffffed 	bl	635e8 <clrscr>
   63638:	b9401fe8 	ldr	w8, [sp, #28]
   6363c:	f0000009 	adrp	x9, 66000 <_DYNAMIC+0xca0>
   63640:	b945d12a 	ldr	w10, [x9, #1488]
   63644:	528000a9 	mov	w9, #0x5                   	// #5
   63648:	6b0a0129 	subs	w9, w9, w10
   6364c:	6b090108 	subs	w8, w8, w9
   63650:	540000eb 	b.lt	6366c <Arrays_One+0x68>  // b.tstop
   63654:	14000001 	b	63658 <Arrays_One+0x54>
   63658:	b0ffffe0 	adrp	x0, 60000 <note_end+0x5fca8>
   6365c:	9120b400 	add	x0, x0, #0x82d
   63660:	97fffcae 	bl	62918 <Message>
   63664:	b81fc3bf 	stur	wzr, [x29, #-4]
   63668:	140000bf 	b	63964 <Arrays_One+0x360>
   6366c:	b0ffffe0 	adrp	x0, 60000 <note_end+0x5fca8>
   63670:	911e8c00 	add	x0, x0, #0x7a3
   63674:	9400030b 	bl	642a0 <printf@plt>
   63678:	d0ffffe0 	adrp	x0, 61000 <note_end+0x60ca8>
   6367c:	91004400 	add	x0, x0, #0x11
   63680:	97fffca6 	bl	62918 <Message>
   63684:	d0ffffe0 	adrp	x0, 61000 <note_end+0x60ca8>
   63688:	91037000 	add	x0, x0, #0xdc
   6368c:	94000305 	bl	642a0 <printf@plt>
   63690:	f0000008 	adrp	x8, 66000 <_DYNAMIC+0xca0>
   63694:	f9000be8 	str	x8, [sp, #16]
   63698:	b945d109 	ldr	w9, [x8, #1488]
   6369c:	528000a8 	mov	w8, #0x5                   	// #5
   636a0:	b9001be8 	str	w8, [sp, #24]
   636a4:	6b090101 	subs	w1, w8, w9
   636a8:	d0ffffe0 	adrp	x0, 61000 <note_end+0x60ca8>
   636ac:	91043000 	add	x0, x0, #0x10c
   636b0:	940002fc 	bl	642a0 <printf@plt>
   636b4:	b0ffffe0 	adrp	x0, 60000 <note_end+0x5fca8>
   636b8:	912c4c00 	add	x0, x0, #0xb13
   636bc:	940002f9 	bl	642a0 <printf@plt>
   636c0:	97ffff7f 	bl	634bc <inInt>
   636c4:	f9400bea 	ldr	x10, [sp, #16]
   636c8:	b9401be9 	ldr	w9, [sp, #24]
   636cc:	b81f43a0 	stur	w0, [x29, #-12]
   636d0:	b85f43a8 	ldur	w8, [x29, #-12]
   636d4:	b945d14a 	ldr	w10, [x10, #1488]
   636d8:	6b0a0129 	subs	w9, w9, w10
   636dc:	6b090108 	subs	w8, w8, w9
   636e0:	5400012d 	b.le	63704 <Arrays_One+0x100>
   636e4:	14000001 	b	636e8 <Arrays_One+0xe4>
   636e8:	d0ffffe0 	adrp	x0, 61000 <note_end+0x60ca8>
   636ec:	91072c00 	add	x0, x0, #0x1cb
   636f0:	97fffc8a 	bl	62918 <Message>
   636f4:	97ffffbd 	bl	635e8 <clrscr>
   636f8:	52800028 	mov	w8, #0x1                   	// #1
   636fc:	b81fc3a8 	stur	w8, [x29, #-4]
   63700:	14000099 	b	63964 <Arrays_One+0x360>
   63704:	b85f43a8 	ldur	w8, [x29, #-12]
   63708:	71000108 	subs	w8, w8, #0x0
   6370c:	5400008c 	b.gt	6371c <Arrays_One+0x118>
   63710:	14000001 	b	63714 <Arrays_One+0x110>
   63714:	b81fc3bf 	stur	wzr, [x29, #-4]
   63718:	14000093 	b	63964 <Arrays_One+0x360>
   6371c:	97ffffb3 	bl	635e8 <clrscr>
   63720:	b0ffffe0 	adrp	x0, 60000 <note_end+0x5fca8>
   63724:	912d2400 	add	x0, x0, #0xb49
   63728:	940002de 	bl	642a0 <printf@plt>
   6372c:	b81f83bf 	stur	wzr, [x29, #-8]
   63730:	14000001 	b	63734 <Arrays_One+0x130>
   63734:	b85f83a8 	ldur	w8, [x29, #-8]
   63738:	b85f43a9 	ldur	w9, [x29, #-12]
   6373c:	6b090108 	subs	w8, w8, w9
   63740:	5400022a 	b.ge	63784 <Arrays_One+0x180>  // b.tcont
   63744:	14000001 	b	63748 <Arrays_One+0x144>
   63748:	b85f83a8 	ldur	w8, [x29, #-8]
   6374c:	11000501 	add	w1, w8, #0x1
   63750:	b0ffffe0 	adrp	x0, 60000 <note_end+0x5fca8>
   63754:	9138d400 	add	x0, x0, #0xe35
   63758:	940002d2 	bl	642a0 <printf@plt>
   6375c:	97ffff58 	bl	634bc <inInt>
   63760:	b89f83a9 	ldursw	x9, [x29, #-8]
   63764:	91400fe8 	add	x8, sp, #0x3, lsl #12
   63768:	91009108 	add	x8, x8, #0x24
   6376c:	b8297900 	str	w0, [x8, x9, lsl #2]
   63770:	14000001 	b	63774 <Arrays_One+0x170>
   63774:	b85f83a8 	ldur	w8, [x29, #-8]
   63778:	11000508 	add	w8, w8, #0x1
   6377c:	b81f83a8 	stur	w8, [x29, #-8]
   63780:	17ffffed 	b	63734 <Arrays_One+0x130>
   63784:	97ffff99 	bl	635e8 <clrscr>
   63788:	b81f83bf 	stur	wzr, [x29, #-8]
   6378c:	14000001 	b	63790 <Arrays_One+0x18c>
   63790:	b85f83a8 	ldur	w8, [x29, #-8]
   63794:	b85f43a9 	ldur	w9, [x29, #-12]
   63798:	6b090108 	subs	w8, w8, w9
   6379c:	540005aa 	b.ge	63850 <Arrays_One+0x24c>  // b.tcont
   637a0:	14000001 	b	637a4 <Arrays_One+0x1a0>
   637a4:	b89f83a9 	ldursw	x9, [x29, #-8]
   637a8:	91400fe8 	add	x8, sp, #0x3, lsl #12
   637ac:	91009108 	add	x8, x8, #0x24
   637b0:	b8697900 	ldr	w0, [x8, x9, lsl #2]
   637b4:	94000072 	bl	6397c <array_push>
   637b8:	350000a0 	cbnz	w0, 637cc <Arrays_One+0x1c8>
   637bc:	14000001 	b	637c0 <Arrays_One+0x1bc>
   637c0:	52800028 	mov	w8, #0x1                   	// #1
   637c4:	b93023e8 	str	w8, [sp, #12320]
   637c8:	14000001 	b	637cc <Arrays_One+0x1c8>
   637cc:	b85f83a8 	ldur	w8, [x29, #-8]
   637d0:	b85f43a9 	ldur	w9, [x29, #-12]
   637d4:	71000529 	subs	w9, w9, #0x1
   637d8:	6b090108 	subs	w8, w8, w9
   637dc:	540001aa 	b.ge	63810 <Arrays_One+0x20c>  // b.tcont
   637e0:	14000001 	b	637e4 <Arrays_One+0x1e0>
   637e4:	b89f83a9 	ldursw	x9, [x29, #-8]
   637e8:	91400fe8 	add	x8, sp, #0x3, lsl #12
   637ec:	91009108 	add	x8, x8, #0x24
   637f0:	b8697903 	ldr	w3, [x8, x9, lsl #2]
   637f4:	91400be2 	add	x2, sp, #0x2, lsl #12
   637f8:	91008042 	add	x2, x2, #0x20
   637fc:	aa0203e0 	mov	x0, x2
   63800:	b0ffffe1 	adrp	x1, 60000 <note_end+0x5fca8>
   63804:	91367c21 	add	x1, x1, #0xd9f
   63808:	940002ba 	bl	642f0 <sprintf@plt>
   6380c:	1400000c 	b	6383c <Arrays_One+0x238>
   63810:	b89f83a9 	ldursw	x9, [x29, #-8]
   63814:	91400fe8 	add	x8, sp, #0x3, lsl #12
   63818:	91009108 	add	x8, x8, #0x24
   6381c:	b8697903 	ldr	w3, [x8, x9, lsl #2]
   63820:	91400be2 	add	x2, sp, #0x2, lsl #12
   63824:	91008042 	add	x2, x2, #0x20
   63828:	aa0203e0 	mov	x0, x2
   6382c:	d0ffffe1 	adrp	x1, 61000 <note_end+0x60ca8>
   63830:	91003021 	add	x1, x1, #0xc
   63834:	940002af 	bl	642f0 <sprintf@plt>
   63838:	14000001 	b	6383c <Arrays_One+0x238>
   6383c:	14000001 	b	63840 <Arrays_One+0x23c>
   63840:	b85f83a8 	ldur	w8, [x29, #-8]
   63844:	11000508 	add	w8, w8, #0x1
   63848:	b81f83a8 	stur	w8, [x29, #-8]
   6384c:	17ffffd1 	b	63790 <Arrays_One+0x18c>
   63850:	b97023e8 	ldr	w8, [sp, #12320]
   63854:	34000148 	cbz	w8, 6387c <Arrays_One+0x278>
   63858:	14000001 	b	6385c <Arrays_One+0x258>
   6385c:	914007e0 	add	x0, sp, #0x1, lsl #12
   63860:	91008000 	add	x0, x0, #0x20
   63864:	b0ffffe1 	adrp	x1, 60000 <note_end+0x5fca8>
   63868:	91321421 	add	x1, x1, #0xc85
   6386c:	91400be2 	add	x2, sp, #0x2, lsl #12
   63870:	91008042 	add	x2, x2, #0x20
   63874:	9400029f 	bl	642f0 <sprintf@plt>
   63878:	14000009 	b	6389c <Arrays_One+0x298>
   6387c:	914007e0 	add	x0, sp, #0x1, lsl #12
   63880:	91008000 	add	x0, x0, #0x20
   63884:	b0ffffe1 	adrp	x1, 60000 <note_end+0x5fca8>
   63888:	91304821 	add	x1, x1, #0xc12
   6388c:	91400be2 	add	x2, sp, #0x2, lsl #12
   63890:	91008042 	add	x2, x2, #0x20
   63894:	94000297 	bl	642f0 <sprintf@plt>
   63898:	14000001 	b	6389c <Arrays_One+0x298>
   6389c:	91400be0 	add	x0, sp, #0x2, lsl #12
   638a0:	91008000 	add	x0, x0, #0x20
   638a4:	b0ffffe1 	adrp	x1, 60000 <note_end+0x5fca8>
   638a8:	91267821 	add	x1, x1, #0x99e
   638ac:	d0ffffe2 	adrp	x2, 61000 <note_end+0x60ca8>
   638b0:	91004442 	add	x2, x2, #0x11
   638b4:	9400028f 	bl	642f0 <sprintf@plt>
   638b8:	f0000008 	adrp	x8, 66000 <_DYNAMIC+0xca0>
   638bc:	b945d109 	ldr	w9, [x8, #1488]
   638c0:	528000a8 	mov	w8, #0x5                   	// #5
   638c4:	6b090108 	subs	w8, w8, w9
   638c8:	71000508 	subs	w8, w8, #0x1
   638cc:	540002ca 	b.ge	63924 <Arrays_One+0x320>  // b.tcont
   638d0:	14000001 	b	638d4 <Arrays_One+0x2d0>
   638d4:	f0000008 	adrp	x8, 66000 <_DYNAMIC+0xca0>
   638d8:	b945d103 	ldr	w3, [x8, #1488]
   638dc:	910083e0 	add	x0, sp, #0x20
   638e0:	f90007e0 	str	x0, [sp, #8]
   638e4:	d0ffffe1 	adrp	x1, 61000 <note_end+0x60ca8>
   638e8:	91007021 	add	x1, x1, #0x1c
   638ec:	914007e2 	add	x2, sp, #0x1, lsl #12
   638f0:	91008042 	add	x2, x2, #0x20
   638f4:	528000a4 	mov	w4, #0x5                   	// #5
   638f8:	9400027e 	bl	642f0 <sprintf@plt>
   638fc:	f94007e0 	ldr	x0, [sp, #8]
   63900:	b0ffffe1 	adrp	x1, 60000 <note_end+0x5fca8>
   63904:	91267821 	add	x1, x1, #0x99e
   63908:	b0ffffe2 	adrp	x2, 60000 <note_end+0x5fca8>
   6390c:	9132d842 	add	x2, x2, #0xcb6
   63910:	94000278 	bl	642f0 <sprintf@plt>
   63914:	f94007e0 	ldr	x0, [sp, #8]
   63918:	97fffc00 	bl	62918 <Message>
   6391c:	b81fc3bf 	stur	wzr, [x29, #-4]
   63920:	14000011 	b	63964 <Arrays_One+0x360>
   63924:	f0000008 	adrp	x8, 66000 <_DYNAMIC+0xca0>
   63928:	b945d108 	ldr	w8, [x8, #1488]
   6392c:	528000a4 	mov	w4, #0x5                   	// #5
   63930:	6b080083 	subs	w3, w4, w8
   63934:	914007e2 	add	x2, sp, #0x1, lsl #12
   63938:	91008042 	add	x2, x2, #0x20
   6393c:	f90003e2 	str	x2, [sp]
   63940:	aa0203e0 	mov	x0, x2
   63944:	b0ffffe1 	adrp	x1, 60000 <note_end+0x5fca8>
   63948:	9124c421 	add	x1, x1, #0x931
   6394c:	94000269 	bl	642f0 <sprintf@plt>
   63950:	f94003e0 	ldr	x0, [sp]
   63954:	97fffbf1 	bl	62918 <Message>
   63958:	52800028 	mov	w8, #0x1                   	// #1
   6395c:	b81fc3a8 	stur	w8, [x29, #-4]
   63960:	14000001 	b	63964 <Arrays_One+0x360>
   63964:	b85fc3a0 	ldur	w0, [x29, #-4]
   63968:	91400fff 	add	sp, sp, #0x3, lsl #12
   6396c:	9110c3ff 	add	sp, sp, #0x430
   63970:	f9400bfc 	ldr	x28, [sp, #16]
   63974:	a8c27bfd 	ldp	x29, x30, [sp], #32
   63978:	d65f03c0 	ret

000000000006397c <array_push>:
   6397c:	d10043ff 	sub	sp, sp, #0x10
   63980:	b9000be0 	str	w0, [sp, #8]
   63984:	f0000008 	adrp	x8, 66000 <_DYNAMIC+0xca0>
   63988:	b945d108 	ldr	w8, [x8, #1488]
   6398c:	71001508 	subs	w8, w8, #0x5
   63990:	5400008d 	b.le	639a0 <array_push+0x24>
   63994:	14000001 	b	63998 <array_push+0x1c>
   63998:	b9000fff 	str	wzr, [sp, #12]
   6399c:	1400000d 	b	639d0 <array_push+0x54>
   639a0:	b9400be8 	ldr	w8, [sp, #8]
   639a4:	f000000a 	adrp	x10, 66000 <_DYNAMIC+0xca0>
   639a8:	b985d14b 	ldrsw	x11, [x10, #1488]
   639ac:	f0000009 	adrp	x9, 66000 <_DYNAMIC+0xca0>
   639b0:	91175129 	add	x9, x9, #0x5d4
   639b4:	b82b7928 	str	w8, [x9, x11, lsl #2]
   639b8:	b945d149 	ldr	w9, [x10, #1488]
   639bc:	52800028 	mov	w8, #0x1                   	// #1
   639c0:	11000529 	add	w9, w9, #0x1
   639c4:	b905d149 	str	w9, [x10, #1488]
   639c8:	b9000fe8 	str	w8, [sp, #12]
   639cc:	14000001 	b	639d0 <array_push+0x54>
   639d0:	b9400fe0 	ldr	w0, [sp, #12]
   639d4:	910043ff 	add	sp, sp, #0x10
   639d8:	d65f03c0 	ret

00000000000639dc <Arrays_Two>:
   639dc:	a9be7bfd 	stp	x29, x30, [sp, #-32]!
   639e0:	f9000bfc 	str	x28, [sp, #16]
   639e4:	910003fd 	mov	x29, sp
   639e8:	d10903ff 	sub	sp, sp, #0x240
   639ec:	97fffeff 	bl	635e8 <clrscr>
   639f0:	f0000008 	adrp	x8, 66000 <_DYNAMIC+0xca0>
   639f4:	b945d108 	ldr	w8, [x8, #1488]
   639f8:	71000108 	subs	w8, w8, #0x0
   639fc:	540000ec 	b.gt	63a18 <Arrays_Two+0x3c>
   63a00:	14000001 	b	63a04 <Arrays_Two+0x28>
   63a04:	b0ffffe0 	adrp	x0, 60000 <note_end+0x5fca8>
   63a08:	9135ac00 	add	x0, x0, #0xd6b
   63a0c:	97fffbc3 	bl	62918 <Message>
   63a10:	b81fc3bf 	stur	wzr, [x29, #-4]
   63a14:	1400007a 	b	63bfc <Arrays_Two+0x220>
   63a18:	d0ffffe0 	adrp	x0, 61000 <note_end+0x60ca8>
   63a1c:	91027800 	add	x0, x0, #0x9e
   63a20:	94000220 	bl	642a0 <printf@plt>
   63a24:	d0ffffe0 	adrp	x0, 61000 <note_end+0x60ca8>
   63a28:	91004400 	add	x0, x0, #0x11
   63a2c:	97fffbbb 	bl	62918 <Message>
   63a30:	f0000008 	adrp	x8, 66000 <_DYNAMIC+0xca0>
   63a34:	b945d101 	ldr	w1, [x8, #1488]
   63a38:	f0000000 	adrp	x0, 66000 <_DYNAMIC+0xca0>
   63a3c:	91175000 	add	x0, x0, #0x5d4
   63a40:	f90017e0 	str	x0, [sp, #40]
   63a44:	94000073 	bl	63c10 <array_print>
   63a48:	b0ffffe0 	adrp	x0, 60000 <note_end+0x5fca8>
   63a4c:	91289000 	add	x0, x0, #0xa24
   63a50:	94000214 	bl	642a0 <printf@plt>
   63a54:	97fffe9a 	bl	634bc <inInt>
   63a58:	f94017e8 	ldr	x8, [sp, #40]
   63a5c:	b81f83a0 	stur	w0, [x29, #-8]
   63a60:	b85f83a9 	ldur	w9, [x29, #-8]
   63a64:	71000529 	subs	w9, w9, #0x1
   63a68:	b869d908 	ldr	w8, [x8, w9, sxtw #2]
   63a6c:	b81f03a8 	stur	w8, [x29, #-16]
   63a70:	b85f83a8 	ldur	w8, [x29, #-8]
   63a74:	71000108 	subs	w8, w8, #0x0
   63a78:	5400008c 	b.gt	63a88 <Arrays_Two+0xac>
   63a7c:	14000001 	b	63a80 <Arrays_Two+0xa4>
   63a80:	b81fc3bf 	stur	wzr, [x29, #-4]
   63a84:	1400005e 	b	63bfc <Arrays_Two+0x220>
   63a88:	b85f83a8 	ldur	w8, [x29, #-8]
   63a8c:	f0000009 	adrp	x9, 66000 <_DYNAMIC+0xca0>
   63a90:	b945d129 	ldr	w9, [x9, #1488]
   63a94:	6b090108 	subs	w8, w8, w9
   63a98:	5400010d 	b.le	63ab8 <Arrays_Two+0xdc>
   63a9c:	14000001 	b	63aa0 <Arrays_Two+0xc4>
   63aa0:	b0ffffe0 	adrp	x0, 60000 <note_end+0x5fca8>
   63aa4:	91391800 	add	x0, x0, #0xe46
   63aa8:	97fffb9c 	bl	62918 <Message>
   63aac:	52800028 	mov	w8, #0x1                   	// #1
   63ab0:	b81fc3a8 	stur	w8, [x29, #-4]
   63ab4:	14000052 	b	63bfc <Arrays_Two+0x220>
   63ab8:	14000001 	b	63abc <Arrays_Two+0xe0>
   63abc:	97fffecb 	bl	635e8 <clrscr>
   63ac0:	b85f83a1 	ldur	w1, [x29, #-8]
   63ac4:	b85f03a2 	ldur	w2, [x29, #-16]
   63ac8:	d0ffffe0 	adrp	x0, 61000 <note_end+0x60ca8>
   63acc:	91010000 	add	x0, x0, #0x40
   63ad0:	940001f4 	bl	642a0 <printf@plt>
   63ad4:	d0ffffe0 	adrp	x0, 61000 <note_end+0x60ca8>
   63ad8:	91004400 	add	x0, x0, #0x11
   63adc:	97fffb8f 	bl	62918 <Message>
   63ae0:	b0ffffe0 	adrp	x0, 60000 <note_end+0x5fca8>
   63ae4:	912eb800 	add	x0, x0, #0xbae
   63ae8:	940001ee 	bl	642a0 <printf@plt>
   63aec:	97fffe74 	bl	634bc <inInt>
   63af0:	b81f43a0 	stur	w0, [x29, #-12]
   63af4:	b85f43a2 	ldur	w2, [x29, #-12]
   63af8:	9100c3e0 	add	x0, sp, #0x30
   63afc:	f90013e0 	str	x0, [sp, #32]
   63b00:	b0ffffe1 	adrp	x1, 60000 <note_end+0x5fca8>
   63b04:	913f3021 	add	x1, x1, #0xfcc
   63b08:	940001fa 	bl	642f0 <sprintf@plt>
   63b0c:	f94013e0 	ldr	x0, [sp, #32]
   63b10:	97fffb82 	bl	62918 <Message>
   63b14:	14000001 	b	63b18 <Arrays_Two+0x13c>
   63b18:	b85f43a8 	ldur	w8, [x29, #-12]
   63b1c:	b85f03a9 	ldur	w9, [x29, #-16]
   63b20:	6b090108 	subs	w8, w8, w9
   63b24:	54fffcc0 	b.eq	63abc <Arrays_Two+0xe0>  // b.none
   63b28:	14000001 	b	63b2c <Arrays_Two+0x150>
   63b2c:	b0ffffe0 	adrp	x0, 60000 <note_end+0x5fca8>
   63b30:	91342400 	add	x0, x0, #0xd09
   63b34:	97fffb79 	bl	62918 <Message>
   63b38:	b85f03a2 	ldur	w2, [x29, #-16]
   63b3c:	b85f43a3 	ldur	w3, [x29, #-12]
   63b40:	9100c3e0 	add	x0, sp, #0x30
   63b44:	f9000fe0 	str	x0, [sp, #24]
   63b48:	b0ffffe1 	adrp	x1, 60000 <note_end+0x5fca8>
   63b4c:	91369821 	add	x1, x1, #0xda6
   63b50:	940001e8 	bl	642f0 <sprintf@plt>
   63b54:	f9400fe0 	ldr	x0, [sp, #24]
   63b58:	97fffafb 	bl	62744 <Confirm>
   63b5c:	35000100 	cbnz	w0, 63b7c <Arrays_Two+0x1a0>
   63b60:	14000001 	b	63b64 <Arrays_Two+0x188>
   63b64:	b0ffffe0 	adrp	x0, 60000 <note_end+0x5fca8>
   63b68:	911ec800 	add	x0, x0, #0x7b2
   63b6c:	97fffb6b 	bl	62918 <Message>
   63b70:	52800028 	mov	w8, #0x1                   	// #1
   63b74:	b81fc3a8 	stur	w8, [x29, #-4]
   63b78:	14000021 	b	63bfc <Arrays_Two+0x220>
   63b7c:	97fffe9b 	bl	635e8 <clrscr>
   63b80:	b85f43a8 	ldur	w8, [x29, #-12]
   63b84:	b85f83a9 	ldur	w9, [x29, #-8]
   63b88:	5280002a 	mov	w10, #0x1                   	// #1
   63b8c:	b90017ea 	str	w10, [sp, #20]
   63b90:	7100052a 	subs	w10, w9, #0x1
   63b94:	f0000009 	adrp	x9, 66000 <_DYNAMIC+0xca0>
   63b98:	91175129 	add	x9, x9, #0x5d4
   63b9c:	b82ad928 	str	w8, [x9, w10, sxtw #2]
   63ba0:	9100c3e0 	add	x0, sp, #0x30
   63ba4:	f90007e0 	str	x0, [sp, #8]
   63ba8:	2a1f03e1 	mov	w1, wzr
   63bac:	d2804002 	mov	x2, #0x200                 	// #512
   63bb0:	940001cc 	bl	642e0 <memset@plt>
   63bb4:	f94007e2 	ldr	x2, [sp, #8]
   63bb8:	b85f03a3 	ldur	w3, [x29, #-16]
   63bbc:	b85f43a4 	ldur	w4, [x29, #-12]
   63bc0:	b85f83a5 	ldur	w5, [x29, #-8]
   63bc4:	aa0203e0 	mov	x0, x2
   63bc8:	b0ffffe1 	adrp	x1, 60000 <note_end+0x5fca8>
   63bcc:	911f2821 	add	x1, x1, #0x7ca
   63bd0:	940001c8 	bl	642f0 <sprintf@plt>
   63bd4:	f94007e2 	ldr	x2, [sp, #8]
   63bd8:	aa0203e0 	mov	x0, x2
   63bdc:	b0ffffe1 	adrp	x1, 60000 <note_end+0x5fca8>
   63be0:	9120f821 	add	x1, x1, #0x83e
   63be4:	940001c3 	bl	642f0 <sprintf@plt>
   63be8:	f94007e0 	ldr	x0, [sp, #8]
   63bec:	97fffb4b 	bl	62918 <Message>
   63bf0:	b94017e8 	ldr	w8, [sp, #20]
   63bf4:	b81fc3a8 	stur	w8, [x29, #-4]
   63bf8:	14000001 	b	63bfc <Arrays_Two+0x220>
   63bfc:	b85fc3a0 	ldur	w0, [x29, #-4]
   63c00:	910903ff 	add	sp, sp, #0x240
   63c04:	f9400bfc 	ldr	x28, [sp, #16]
   63c08:	a8c27bfd 	ldp	x29, x30, [sp], #32
   63c0c:	d65f03c0 	ret

0000000000063c10 <array_print>:
   63c10:	d10083ff 	sub	sp, sp, #0x20
   63c14:	a9017bfd 	stp	x29, x30, [sp, #16]
   63c18:	910043fd 	add	x29, sp, #0x10
   63c1c:	f90007e0 	str	x0, [sp, #8]
   63c20:	b90007e1 	str	w1, [sp, #4]
   63c24:	b90003ff 	str	wzr, [sp]
   63c28:	14000001 	b	63c2c <array_print+0x1c>
   63c2c:	b94003e8 	ldr	w8, [sp]
   63c30:	b94007e9 	ldr	w9, [sp, #4]
   63c34:	6b090108 	subs	w8, w8, w9
   63c38:	540001ea 	b.ge	63c74 <array_print+0x64>  // b.tcont
   63c3c:	14000001 	b	63c40 <array_print+0x30>
   63c40:	b94003e8 	ldr	w8, [sp]
   63c44:	11000501 	add	w1, w8, #0x1
   63c48:	f94007e8 	ldr	x8, [sp, #8]
   63c4c:	b98003e9 	ldrsw	x9, [sp]
   63c50:	b8697902 	ldr	w2, [x8, x9, lsl #2]
   63c54:	b0ffffe0 	adrp	x0, 60000 <note_end+0x5fca8>
   63c58:	9130ac00 	add	x0, x0, #0xc2b
   63c5c:	94000191 	bl	642a0 <printf@plt>
   63c60:	14000001 	b	63c64 <array_print+0x54>
   63c64:	b94003e8 	ldr	w8, [sp]
   63c68:	11000508 	add	w8, w8, #0x1
   63c6c:	b90003e8 	str	w8, [sp]
   63c70:	17ffffef 	b	63c2c <array_print+0x1c>
   63c74:	a9417bfd 	ldp	x29, x30, [sp, #16]
   63c78:	910083ff 	add	sp, sp, #0x20
   63c7c:	d65f03c0 	ret

0000000000063c80 <Arrays_Three>:
   63c80:	d10303ff 	sub	sp, sp, #0xc0
   63c84:	a90b7bfd 	stp	x29, x30, [sp, #176]
   63c88:	9102c3fd 	add	x29, sp, #0xb0
   63c8c:	97fffe57 	bl	635e8 <clrscr>
   63c90:	f0000008 	adrp	x8, 66000 <_DYNAMIC+0xca0>
   63c94:	b945d108 	ldr	w8, [x8, #1488]
   63c98:	71000108 	subs	w8, w8, #0x0
   63c9c:	540000ec 	b.gt	63cb8 <Arrays_Three+0x38>
   63ca0:	14000001 	b	63ca4 <Arrays_Three+0x24>
   63ca4:	d0ffffe0 	adrp	x0, 61000 <note_end+0x60ca8>
   63ca8:	9101a000 	add	x0, x0, #0x68
   63cac:	97fffb1b 	bl	62918 <Message>
   63cb0:	b81fc3bf 	stur	wzr, [x29, #-4]
   63cb4:	14000074 	b	63e84 <Arrays_Three+0x204>
   63cb8:	b0ffffe0 	adrp	x0, 60000 <note_end+0x5fca8>
   63cbc:	9122e000 	add	x0, x0, #0x8b8
   63cc0:	94000178 	bl	642a0 <printf@plt>
   63cc4:	d0ffffe0 	adrp	x0, 61000 <note_end+0x60ca8>
   63cc8:	91004400 	add	x0, x0, #0x11
   63ccc:	97fffb13 	bl	62918 <Message>
   63cd0:	f0000008 	adrp	x8, 66000 <_DYNAMIC+0xca0>
   63cd4:	b945d101 	ldr	w1, [x8, #1488]
   63cd8:	f0000000 	adrp	x0, 66000 <_DYNAMIC+0xca0>
   63cdc:	91175000 	add	x0, x0, #0x5d4
   63ce0:	97ffffcc 	bl	63c10 <array_print>
   63ce4:	b0ffffe0 	adrp	x0, 60000 <note_end+0x5fca8>
   63ce8:	91375400 	add	x0, x0, #0xdd5
   63cec:	9400016d 	bl	642a0 <printf@plt>
   63cf0:	97fffdf3 	bl	634bc <inInt>
   63cf4:	b81f83a0 	stur	w0, [x29, #-8]
   63cf8:	b85f83a8 	ldur	w8, [x29, #-8]
   63cfc:	71000108 	subs	w8, w8, #0x0
   63d00:	5400008c 	b.gt	63d10 <Arrays_Three+0x90>
   63d04:	14000001 	b	63d08 <Arrays_Three+0x88>
   63d08:	b81fc3bf 	stur	wzr, [x29, #-4]
   63d0c:	1400005e 	b	63e84 <Arrays_Three+0x204>
   63d10:	b85f83a8 	ldur	w8, [x29, #-8]
   63d14:	f0000009 	adrp	x9, 66000 <_DYNAMIC+0xca0>
   63d18:	b945d129 	ldr	w9, [x9, #1488]
   63d1c:	6b090108 	subs	w8, w8, w9
   63d20:	5400010d 	b.le	63d40 <Arrays_Three+0xc0>
   63d24:	14000001 	b	63d28 <Arrays_Three+0xa8>
   63d28:	b0ffffe0 	adrp	x0, 60000 <note_end+0x5fca8>
   63d2c:	91391800 	add	x0, x0, #0xe46
   63d30:	97fffafa 	bl	62918 <Message>
   63d34:	52800028 	mov	w8, #0x1                   	// #1
   63d38:	b81fc3a8 	stur	w8, [x29, #-4]
   63d3c:	14000052 	b	63e84 <Arrays_Three+0x204>
   63d40:	97fffe2a 	bl	635e8 <clrscr>
   63d44:	b85f83a8 	ldur	w8, [x29, #-8]
   63d48:	71000509 	subs	w9, w8, #0x1
   63d4c:	f0000008 	adrp	x8, 66000 <_DYNAMIC+0xca0>
   63d50:	91175108 	add	x8, x8, #0x5d4
   63d54:	b869d908 	ldr	w8, [x8, w9, sxtw #2]
   63d58:	b81f43a8 	stur	w8, [x29, #-12]
   63d5c:	b85f83a2 	ldur	w2, [x29, #-8]
   63d60:	b85f43a3 	ldur	w3, [x29, #-12]
   63d64:	910083e0 	add	x0, sp, #0x20
   63d68:	f9000fe0 	str	x0, [sp, #24]
   63d6c:	d0ffffe1 	adrp	x1, 61000 <note_end+0x60ca8>
   63d70:	9104c821 	add	x1, x1, #0x132
   63d74:	9400015f 	bl	642f0 <sprintf@plt>
   63d78:	f9400fe0 	ldr	x0, [sp, #24]
   63d7c:	97fffa72 	bl	62744 <Confirm>
   63d80:	35000100 	cbnz	w0, 63da0 <Arrays_Three+0x120>
   63d84:	14000001 	b	63d88 <Arrays_Three+0x108>
   63d88:	b0ffffe0 	adrp	x0, 60000 <note_end+0x5fca8>
   63d8c:	91395000 	add	x0, x0, #0xe54
   63d90:	97fffae2 	bl	62918 <Message>
   63d94:	52800028 	mov	w8, #0x1                   	// #1
   63d98:	b81fc3a8 	stur	w8, [x29, #-4]
   63d9c:	1400003a 	b	63e84 <Arrays_Three+0x204>
   63da0:	b85f83a8 	ldur	w8, [x29, #-8]
   63da4:	71001508 	subs	w8, w8, #0x5
   63da8:	54000121 	b.ne	63dcc <Arrays_Three+0x14c>  // b.any
   63dac:	14000001 	b	63db0 <Arrays_Three+0x130>
   63db0:	b85f83a8 	ldur	w8, [x29, #-8]
   63db4:	7100050a 	subs	w10, w8, #0x1
   63db8:	f0000009 	adrp	x9, 66000 <_DYNAMIC+0xca0>
   63dbc:	91175129 	add	x9, x9, #0x5d4
   63dc0:	2a1f03e8 	mov	w8, wzr
   63dc4:	b82ad928 	str	w8, [x9, w10, sxtw #2]
   63dc8:	14000017 	b	63e24 <Arrays_Three+0x1a4>
   63dcc:	b85f83a8 	ldur	w8, [x29, #-8]
   63dd0:	b81f03a8 	stur	w8, [x29, #-16]
   63dd4:	14000001 	b	63dd8 <Arrays_Three+0x158>
   63dd8:	b85f03a8 	ldur	w8, [x29, #-16]
   63ddc:	f0000009 	adrp	x9, 66000 <_DYNAMIC+0xca0>
   63de0:	b945d129 	ldr	w9, [x9, #1488]
   63de4:	6b090108 	subs	w8, w8, w9
   63de8:	540001ca 	b.ge	63e20 <Arrays_Three+0x1a0>  // b.tcont
   63dec:	14000001 	b	63df0 <Arrays_Three+0x170>
   63df0:	b89f03a8 	ldursw	x8, [x29, #-16]
   63df4:	f0000009 	adrp	x9, 66000 <_DYNAMIC+0xca0>
   63df8:	91175129 	add	x9, x9, #0x5d4
   63dfc:	b8687928 	ldr	w8, [x9, x8, lsl #2]
   63e00:	b85f03aa 	ldur	w10, [x29, #-16]
   63e04:	7100054a 	subs	w10, w10, #0x1
   63e08:	b82ad928 	str	w8, [x9, w10, sxtw #2]
   63e0c:	14000001 	b	63e10 <Arrays_Three+0x190>
   63e10:	b85f03a8 	ldur	w8, [x29, #-16]
   63e14:	11000508 	add	w8, w8, #0x1
   63e18:	b81f03a8 	stur	w8, [x29, #-16]
   63e1c:	17ffffef 	b	63dd8 <Arrays_Three+0x158>
   63e20:	14000001 	b	63e24 <Arrays_Three+0x1a4>
   63e24:	f0000009 	adrp	x9, 66000 <_DYNAMIC+0xca0>
   63e28:	f90007e9 	str	x9, [sp, #8]
   63e2c:	b945d128 	ldr	w8, [x9, #1488]
   63e30:	5280002a 	mov	w10, #0x1                   	// #1
   63e34:	b90017ea 	str	w10, [sp, #20]
   63e38:	71000508 	subs	w8, w8, #0x1
   63e3c:	b905d128 	str	w8, [x9, #1488]
   63e40:	97fffdea 	bl	635e8 <clrscr>
   63e44:	b85f43a2 	ldur	w2, [x29, #-12]
   63e48:	910083e0 	add	x0, sp, #0x20
   63e4c:	f90003e0 	str	x0, [sp]
   63e50:	b0ffffe1 	adrp	x1, 60000 <note_end+0x5fca8>
   63e54:	91344021 	add	x1, x1, #0xd10
   63e58:	94000126 	bl	642f0 <sprintf@plt>
   63e5c:	f94003e0 	ldr	x0, [sp]
   63e60:	97fffaae 	bl	62918 <Message>
   63e64:	f94007e8 	ldr	x8, [sp, #8]
   63e68:	b945d101 	ldr	w1, [x8, #1488]
   63e6c:	f0000000 	adrp	x0, 66000 <_DYNAMIC+0xca0>
   63e70:	91175000 	add	x0, x0, #0x5d4
   63e74:	97ffff67 	bl	63c10 <array_print>
   63e78:	b94017e8 	ldr	w8, [sp, #20]
   63e7c:	b81fc3a8 	stur	w8, [x29, #-4]
   63e80:	14000001 	b	63e84 <Arrays_Three+0x204>
   63e84:	b85fc3a0 	ldur	w0, [x29, #-4]
   63e88:	a94b7bfd 	ldp	x29, x30, [sp, #176]
   63e8c:	910303ff 	add	sp, sp, #0xc0
   63e90:	d65f03c0 	ret

0000000000063e94 <Arrays_Four>:
   63e94:	a9be7bfd 	stp	x29, x30, [sp, #-32]!
   63e98:	f9000bfc 	str	x28, [sp, #16]
   63e9c:	910003fd 	mov	x29, sp
   63ea0:	d14043ff 	sub	sp, sp, #0x10, lsl #12
   63ea4:	d12083ff 	sub	sp, sp, #0x820
   63ea8:	914043e8 	add	x8, sp, #0x10, lsl #12
   63eac:	91005108 	add	x8, x8, #0x14
   63eb0:	f90007e8 	str	x8, [sp, #8]
   63eb4:	910053e0 	add	x0, sp, #0x14
   63eb8:	b0ffff61 	adrp	x1, 50000 <note_end+0x4fca8>
   63ebc:	911d0021 	add	x1, x1, #0x740
   63ec0:	d2a00022 	mov	x2, #0x10000               	// #65536
   63ec4:	940000ff 	bl	642c0 <memcpy@plt>
   63ec8:	97fffdc8 	bl	635e8 <clrscr>
   63ecc:	f0000008 	adrp	x8, 66000 <_DYNAMIC+0xca0>
   63ed0:	b945d108 	ldr	w8, [x8, #1488]
   63ed4:	71000108 	subs	w8, w8, #0x0
   63ed8:	5400010c 	b.gt	63ef8 <Arrays_Four+0x64>
   63edc:	14000001 	b	63ee0 <Arrays_Four+0x4c>
   63ee0:	b0ffffe0 	adrp	x0, 60000 <note_end+0x5fca8>
   63ee4:	911fe000 	add	x0, x0, #0x7f8
   63ee8:	97fffa8c 	bl	62918 <Message>
   63eec:	f94007e8 	ldr	x8, [sp, #8]
   63ef0:	b908091f 	str	wzr, [x8, #2056]
   63ef4:	1400006a 	b	6409c <Arrays_Four+0x208>
   63ef8:	f94007e8 	ldr	x8, [sp, #8]
   63efc:	b900051f 	str	wzr, [x8, #4]
   63f00:	14000001 	b	63f04 <Arrays_Four+0x70>
   63f04:	f94007e8 	ldr	x8, [sp, #8]
   63f08:	b9400508 	ldr	w8, [x8, #4]
   63f0c:	f0000009 	adrp	x9, 66000 <_DYNAMIC+0xca0>
   63f10:	b945d129 	ldr	w9, [x9, #1488]
   63f14:	6b090108 	subs	w8, w8, w9
   63f18:	5400022a 	b.ge	63f5c <Arrays_Four+0xc8>  // b.tcont
   63f1c:	14000001 	b	63f20 <Arrays_Four+0x8c>
   63f20:	f94007e9 	ldr	x9, [sp, #8]
   63f24:	b980052a 	ldrsw	x10, [x9, #4]
   63f28:	f0000008 	adrp	x8, 66000 <_DYNAMIC+0xca0>
   63f2c:	91175108 	add	x8, x8, #0x5d4
   63f30:	b86a7908 	ldr	w8, [x8, x10, lsl #2]
   63f34:	b980052a 	ldrsw	x10, [x9, #4]
   63f38:	914043e9 	add	x9, sp, #0x10, lsl #12
   63f3c:	91007129 	add	x9, x9, #0x1c
   63f40:	b82a7928 	str	w8, [x9, x10, lsl #2]
   63f44:	14000001 	b	63f48 <Arrays_Four+0xb4>
   63f48:	f94007e9 	ldr	x9, [sp, #8]
   63f4c:	b9400528 	ldr	w8, [x9, #4]
   63f50:	11000508 	add	w8, w8, #0x1
   63f54:	b9000528 	str	w8, [x9, #4]
   63f58:	17ffffeb 	b	63f04 <Arrays_Four+0x70>
   63f5c:	14000001 	b	63f60 <Arrays_Four+0xcc>
   63f60:	97fffda2 	bl	635e8 <clrscr>
   63f64:	d0ffffe0 	adrp	x0, 61000 <note_end+0x60ca8>
   63f68:	91059000 	add	x0, x0, #0x164
   63f6c:	940000cd 	bl	642a0 <printf@plt>
   63f70:	f0000008 	adrp	x8, 66000 <_DYNAMIC+0xca0>
   63f74:	b945d101 	ldr	w1, [x8, #1488]
   63f78:	914043e0 	add	x0, sp, #0x10, lsl #12
   63f7c:	91007000 	add	x0, x0, #0x1c
   63f80:	97ffff24 	bl	63c10 <array_print>
   63f84:	b0ffffe0 	adrp	x0, 60000 <note_end+0x5fca8>
   63f88:	9139b400 	add	x0, x0, #0xe6d
   63f8c:	940000c5 	bl	642a0 <printf@plt>
   63f90:	910053e0 	add	x0, sp, #0x14
   63f94:	52800081 	mov	w1, #0x4                   	// #4
   63f98:	97fffa9f 	bl	62a14 <displayMenu>
   63f9c:	f94007e8 	ldr	x8, [sp, #8]
   63fa0:	b9000100 	str	w0, [x8]
   63fa4:	b9400108 	ldr	w8, [x8]
   63fa8:	71000508 	subs	w8, w8, #0x1
   63fac:	f90003e8 	str	x8, [sp]
   63fb0:	f1000d08 	subs	x8, x8, #0x3
   63fb4:	54000728 	b.hi	64098 <Arrays_Four+0x204>  // b.pmore
   63fb8:	f94003eb 	ldr	x11, [sp]
   63fbc:	b0fffcea 	adrp	x10, 0 <note_android_ident-0x2c0>
   63fc0:	911cc14a 	add	x10, x10, #0x730
   63fc4:	10000008 	adr	x8, 63fc4 <Arrays_Four+0x130>
   63fc8:	b8ab7949 	ldrsw	x9, [x10, x11, lsl #2]
   63fcc:	8b090108 	add	x8, x8, x9
   63fd0:	d61f0100 	br	x8
   63fd4:	f0000008 	adrp	x8, 66000 <_DYNAMIC+0xca0>
   63fd8:	b945d101 	ldr	w1, [x8, #1488]
   63fdc:	914043e0 	add	x0, sp, #0x10, lsl #12
   63fe0:	91007000 	add	x0, x0, #0x1c
   63fe4:	94000035 	bl	640b8 <array_reverse>
   63fe8:	1400002c 	b	64098 <Arrays_Four+0x204>
   63fec:	f0000008 	adrp	x8, 66000 <_DYNAMIC+0xca0>
   63ff0:	b945d101 	ldr	w1, [x8, #1488]
   63ff4:	914043e0 	add	x0, sp, #0x10, lsl #12
   63ff8:	91007000 	add	x0, x0, #0x1c
   63ffc:	94000057 	bl	64158 <array_sort>
   64000:	14000026 	b	64098 <Arrays_Four+0x204>
   64004:	90ffffe0 	adrp	x0, 60000 <note_end+0x5fca8>
   64008:	91256c00 	add	x0, x0, #0x95b
   6400c:	97fff9ce 	bl	62744 <Confirm>
   64010:	340003c0 	cbz	w0, 64088 <Arrays_Four+0x1f4>
   64014:	14000001 	b	64018 <Arrays_Four+0x184>
   64018:	f94007e8 	ldr	x8, [sp, #8]
   6401c:	b900051f 	str	wzr, [x8, #4]
   64020:	14000001 	b	64024 <Arrays_Four+0x190>
   64024:	f94007e8 	ldr	x8, [sp, #8]
   64028:	b9400508 	ldr	w8, [x8, #4]
   6402c:	d0000009 	adrp	x9, 66000 <_DYNAMIC+0xca0>
   64030:	b945d129 	ldr	w9, [x9, #1488]
   64034:	6b090108 	subs	w8, w8, w9
   64038:	5400022a 	b.ge	6407c <Arrays_Four+0x1e8>  // b.tcont
   6403c:	14000001 	b	64040 <Arrays_Four+0x1ac>
   64040:	f94007e9 	ldr	x9, [sp, #8]
   64044:	b980052a 	ldrsw	x10, [x9, #4]
   64048:	914043e8 	add	x8, sp, #0x10, lsl #12
   6404c:	91007108 	add	x8, x8, #0x1c
   64050:	b86a7908 	ldr	w8, [x8, x10, lsl #2]
   64054:	b980052a 	ldrsw	x10, [x9, #4]
   64058:	d0000009 	adrp	x9, 66000 <_DYNAMIC+0xca0>
   6405c:	91175129 	add	x9, x9, #0x5d4
   64060:	b82a7928 	str	w8, [x9, x10, lsl #2]
   64064:	14000001 	b	64068 <Arrays_Four+0x1d4>
   64068:	f94007e9 	ldr	x9, [sp, #8]
   6406c:	b9400528 	ldr	w8, [x9, #4]
   64070:	11000508 	add	w8, w8, #0x1
   64074:	b9000528 	str	w8, [x9, #4]
   64078:	17ffffeb 	b	64024 <Arrays_Four+0x190>
   6407c:	f94007e8 	ldr	x8, [sp, #8]
   64080:	b908091f 	str	wzr, [x8, #2056]
   64084:	14000006 	b	6409c <Arrays_Four+0x208>
   64088:	14000004 	b	64098 <Arrays_Four+0x204>
   6408c:	f94007e8 	ldr	x8, [sp, #8]
   64090:	b908091f 	str	wzr, [x8, #2056]
   64094:	14000002 	b	6409c <Arrays_Four+0x208>
   64098:	17ffffb2 	b	63f60 <Arrays_Four+0xcc>
   6409c:	f94007e8 	ldr	x8, [sp, #8]
   640a0:	b9480900 	ldr	w0, [x8, #2056]
   640a4:	914043ff 	add	sp, sp, #0x10, lsl #12
   640a8:	912083ff 	add	sp, sp, #0x820
   640ac:	f9400bfc 	ldr	x28, [sp, #16]
   640b0:	a8c27bfd 	ldp	x29, x30, [sp], #32
   640b4:	d65f03c0 	ret

00000000000640b8 <array_reverse>:
   640b8:	d10083ff 	sub	sp, sp, #0x20
   640bc:	f9000fe0 	str	x0, [sp, #24]
   640c0:	b90017e1 	str	w1, [sp, #20]
   640c4:	b9000fff 	str	wzr, [sp, #12]
   640c8:	14000001 	b	640cc <array_reverse+0x14>
   640cc:	b9400fe8 	ldr	w8, [sp, #12]
   640d0:	b94017e9 	ldr	w9, [sp, #20]
   640d4:	5280004a 	mov	w10, #0x2                   	// #2
   640d8:	1aca0d29 	sdiv	w9, w9, w10
   640dc:	71000529 	subs	w9, w9, #0x1
   640e0:	6b090108 	subs	w8, w8, w9
   640e4:	5400036c 	b.gt	64150 <array_reverse+0x98>
   640e8:	14000001 	b	640ec <array_reverse+0x34>
   640ec:	f9400fe8 	ldr	x8, [sp, #24]
   640f0:	b9800fe9 	ldrsw	x9, [sp, #12]
   640f4:	b8697908 	ldr	w8, [x8, x9, lsl #2]
   640f8:	b90013e8 	str	w8, [sp, #16]
   640fc:	f9400fe8 	ldr	x8, [sp, #24]
   64100:	b94017e9 	ldr	w9, [sp, #20]
   64104:	b9400fea 	ldr	w10, [sp, #12]
   64108:	6b0a0129 	subs	w9, w9, w10
   6410c:	71000529 	subs	w9, w9, #0x1
   64110:	b869d908 	ldr	w8, [x8, w9, sxtw #2]
   64114:	f9400fe9 	ldr	x9, [sp, #24]
   64118:	b9800fea 	ldrsw	x10, [sp, #12]
   6411c:	b82a7928 	str	w8, [x9, x10, lsl #2]
   64120:	b94013e8 	ldr	w8, [sp, #16]
   64124:	f9400fe9 	ldr	x9, [sp, #24]
   64128:	b94017ea 	ldr	w10, [sp, #20]
   6412c:	b9400feb 	ldr	w11, [sp, #12]
   64130:	6b0b014a 	subs	w10, w10, w11
   64134:	7100054a 	subs	w10, w10, #0x1
   64138:	b82ad928 	str	w8, [x9, w10, sxtw #2]
   6413c:	14000001 	b	64140 <array_reverse+0x88>
   64140:	b9400fe8 	ldr	w8, [sp, #12]
   64144:	11000508 	add	w8, w8, #0x1
   64148:	b9000fe8 	str	w8, [sp, #12]
   6414c:	17ffffe0 	b	640cc <array_reverse+0x14>
   64150:	910083ff 	add	sp, sp, #0x20
   64154:	d65f03c0 	ret

0000000000064158 <array_sort>:
   64158:	d10083ff 	sub	sp, sp, #0x20
   6415c:	f9000fe0 	str	x0, [sp, #24]
   64160:	b90017e1 	str	w1, [sp, #20]
   64164:	b90013ff 	str	wzr, [sp, #16]
   64168:	b9000fff 	str	wzr, [sp, #12]
   6416c:	b90013ff 	str	wzr, [sp, #16]
   64170:	14000001 	b	64174 <array_sort+0x1c>
   64174:	b94013e8 	ldr	w8, [sp, #16]
   64178:	b94017e9 	ldr	w9, [sp, #20]
   6417c:	6b090108 	subs	w8, w8, w9
   64180:	5400062a 	b.ge	64244 <array_sort+0xec>  // b.tcont
   64184:	14000001 	b	64188 <array_sort+0x30>
   64188:	b9000fff 	str	wzr, [sp, #12]
   6418c:	14000001 	b	64190 <array_sort+0x38>
   64190:	b9400fe8 	ldr	w8, [sp, #12]
   64194:	b94017e9 	ldr	w9, [sp, #20]
   64198:	b94013ea 	ldr	w10, [sp, #16]
   6419c:	6b0a0129 	subs	w9, w9, w10
   641a0:	71000529 	subs	w9, w9, #0x1
   641a4:	6b090108 	subs	w8, w8, w9
   641a8:	5400044a 	b.ge	64230 <array_sort+0xd8>  // b.tcont
   641ac:	14000001 	b	641b0 <array_sort+0x58>
   641b0:	f9400fe8 	ldr	x8, [sp, #24]
   641b4:	b9800fe9 	ldrsw	x9, [sp, #12]
   641b8:	b8697908 	ldr	w8, [x8, x9, lsl #2]
   641bc:	f9400fe9 	ldr	x9, [sp, #24]
   641c0:	b9400fea 	ldr	w10, [sp, #12]
   641c4:	1100054a 	add	w10, w10, #0x1
   641c8:	b86ad929 	ldr	w9, [x9, w10, sxtw #2]
   641cc:	6b090108 	subs	w8, w8, w9
   641d0:	5400026d 	b.le	6421c <array_sort+0xc4>
   641d4:	14000001 	b	641d8 <array_sort+0x80>
   641d8:	f9400fe8 	ldr	x8, [sp, #24]
   641dc:	b9800fe9 	ldrsw	x9, [sp, #12]
   641e0:	b8697908 	ldr	w8, [x8, x9, lsl #2]
   641e4:	b9000be8 	str	w8, [sp, #8]
   641e8:	f9400fe8 	ldr	x8, [sp, #24]
   641ec:	b9400fe9 	ldr	w9, [sp, #12]
   641f0:	11000529 	add	w9, w9, #0x1
   641f4:	b869d908 	ldr	w8, [x8, w9, sxtw #2]
   641f8:	f9400fe9 	ldr	x9, [sp, #24]
   641fc:	b9800fea 	ldrsw	x10, [sp, #12]
   64200:	b82a7928 	str	w8, [x9, x10, lsl #2]
   64204:	b9400be8 	ldr	w8, [sp, #8]
   64208:	f9400fe9 	ldr	x9, [sp, #24]
   6420c:	b9400fea 	ldr	w10, [sp, #12]
   64210:	1100054a 	add	w10, w10, #0x1
   64214:	b82ad928 	str	w8, [x9, w10, sxtw #2]
   64218:	14000001 	b	6421c <array_sort+0xc4>
   6421c:	14000001 	b	64220 <array_sort+0xc8>
   64220:	b9400fe8 	ldr	w8, [sp, #12]
   64224:	11000508 	add	w8, w8, #0x1
   64228:	b9000fe8 	str	w8, [sp, #12]
   6422c:	17ffffd9 	b	64190 <array_sort+0x38>
   64230:	14000001 	b	64234 <array_sort+0xdc>
   64234:	b94013e8 	ldr	w8, [sp, #16]
   64238:	11000508 	add	w8, w8, #0x1
   6423c:	b90013e8 	str	w8, [sp, #16]
   64240:	17ffffcd 	b	64174 <array_sort+0x1c>
   64244:	910083ff 	add	sp, sp, #0x20
   64248:	d65f03c0 	ret

Disassembly of section .plt:

0000000000064250 <__cxa_atexit@plt-0x20>:
   64250:	a9bf7bf0 	stp	x16, x30, [sp, #-16]!
   64254:	b0000010 	adrp	x16, 65000 <system@plt+0xce0>
   64258:	f942b211 	ldr	x17, [x16, #1376]
   6425c:	91158210 	add	x16, x16, #0x560
   64260:	d61f0220 	br	x17
   64264:	d503201f 	nop
   64268:	d503201f 	nop
   6426c:	d503201f 	nop

0000000000064270 <__cxa_atexit@plt>:
   64270:	b0000010 	adrp	x16, 65000 <system@plt+0xce0>
   64274:	f942b611 	ldr	x17, [x16, #1384]
   64278:	9115a210 	add	x16, x16, #0x568
   6427c:	d61f0220 	br	x17

0000000000064280 <__libc_init@plt>:
   64280:	b0000010 	adrp	x16, 65000 <system@plt+0xce0>
   64284:	f942ba11 	ldr	x17, [x16, #1392]
   64288:	9115c210 	add	x16, x16, #0x570
   6428c:	d61f0220 	br	x17

0000000000064290 <__register_atfork@plt>:
   64290:	b0000010 	adrp	x16, 65000 <system@plt+0xce0>
   64294:	f942be11 	ldr	x17, [x16, #1400]
   64298:	9115e210 	add	x16, x16, #0x578
   6429c:	d61f0220 	br	x17

00000000000642a0 <printf@plt>:
   642a0:	b0000010 	adrp	x16, 65000 <system@plt+0xce0>
   642a4:	f942c211 	ldr	x17, [x16, #1408]
   642a8:	91160210 	add	x16, x16, #0x580
   642ac:	d61f0220 	br	x17

00000000000642b0 <scanf@plt>:
   642b0:	b0000010 	adrp	x16, 65000 <system@plt+0xce0>
   642b4:	f942c611 	ldr	x17, [x16, #1416]
   642b8:	91162210 	add	x16, x16, #0x588
   642bc:	d61f0220 	br	x17

00000000000642c0 <memcpy@plt>:
   642c0:	b0000010 	adrp	x16, 65000 <system@plt+0xce0>
   642c4:	f942ca11 	ldr	x17, [x16, #1424]
   642c8:	91164210 	add	x16, x16, #0x590
   642cc:	d61f0220 	br	x17

00000000000642d0 <strcmp@plt>:
   642d0:	b0000010 	adrp	x16, 65000 <system@plt+0xce0>
   642d4:	f942ce11 	ldr	x17, [x16, #1432]
   642d8:	91166210 	add	x16, x16, #0x598
   642dc:	d61f0220 	br	x17

00000000000642e0 <memset@plt>:
   642e0:	b0000010 	adrp	x16, 65000 <system@plt+0xce0>
   642e4:	f942d211 	ldr	x17, [x16, #1440]
   642e8:	91168210 	add	x16, x16, #0x5a0
   642ec:	d61f0220 	br	x17

00000000000642f0 <sprintf@plt>:
   642f0:	b0000010 	adrp	x16, 65000 <system@plt+0xce0>
   642f4:	f942d611 	ldr	x17, [x16, #1448]
   642f8:	9116a210 	add	x16, x16, #0x5a8
   642fc:	d61f0220 	br	x17

0000000000064300 <strtol@plt>:
   64300:	b0000010 	adrp	x16, 65000 <system@plt+0xce0>
   64304:	f942da11 	ldr	x17, [x16, #1456]
   64308:	9116c210 	add	x16, x16, #0x5b0
   6430c:	d61f0220 	br	x17

0000000000064310 <strlen@plt>:
   64310:	b0000010 	adrp	x16, 65000 <system@plt+0xce0>
   64314:	f942de11 	ldr	x17, [x16, #1464]
   64318:	9116e210 	add	x16, x16, #0x5b8
   6431c:	d61f0220 	br	x17

0000000000064320 <system@plt>:
   64320:	b0000010 	adrp	x16, 65000 <system@plt+0xce0>
   64324:	f942e211 	ldr	x17, [x16, #1472]
   64328:	91170210 	add	x16, x16, #0x5c0
   6432c:	d61f0220 	br	x17

Disassembly of section .preinit_array:

0000000000065330 <__PREINIT_ARRAY__>:
   65330:	ffffffff 	.inst	0xffffffff ; undefined
   65334:	ffffffff 	.inst	0xffffffff ; undefined
	...

Disassembly of section .init_array:

0000000000065340 <__INIT_ARRAY__>:
   65340:	ffffffff 	.inst	0xffffffff ; undefined
   65344:	ffffffff 	.inst	0xffffffff ; undefined
	...

Disassembly of section .fini_array:

0000000000065350 <__FINI_ARRAY__>:
   65350:	ffffffff 	.inst	0xffffffff ; undefined
   65354:	ffffffff 	.inst	0xffffffff ; undefined
	...

Disassembly of section .dynamic:

0000000000065360 <_DYNAMIC>:
   65360:	0000001d 	udf	#29
   65364:	00000000 	udf	#0
   65368:	00000078 	udf	#120
   6536c:	00000000 	udf	#0
   65370:	00000001 	udf	#1
   65374:	00000000 	udf	#0
   65378:	0000009c 	udf	#156
   6537c:	00000000 	udf	#0
   65380:	00000001 	udf	#1
   65384:	00000000 	udf	#0
   65388:	0000006b 	udf	#107
   6538c:	00000000 	udf	#0
   65390:	0000001e 	udf	#30
   65394:	00000000 	udf	#0
   65398:	00000008 	udf	#8
   6539c:	00000000 	udf	#0
   653a0:	6ffffffb 	.inst	0x6ffffffb ; undefined
   653a4:	00000000 	udf	#0
   653a8:	08000001 	stxrb	w0, w1, [x0]
   653ac:	00000000 	udf	#0
   653b0:	00000015 	udf	#21
	...
   653c0:	00000007 	udf	#7
   653c4:	00000000 	udf	#0
   653c8:	00000598 	udf	#1432
   653cc:	00000000 	udf	#0
   653d0:	00000008 	udf	#8
   653d4:	00000000 	udf	#0
   653d8:	00000060 	udf	#96
   653dc:	00000000 	udf	#0
   653e0:	00000009 	udf	#9
   653e4:	00000000 	udf	#0
   653e8:	00000018 	udf	#24
   653ec:	00000000 	udf	#0
   653f0:	6ffffff9 	.inst	0x6ffffff9 ; undefined
   653f4:	00000000 	udf	#0
   653f8:	00000004 	udf	#4
   653fc:	00000000 	udf	#0
   65400:	00000017 	udf	#23
   65404:	00000000 	udf	#0
   65408:	000005f8 	udf	#1528
   6540c:	00000000 	udf	#0
   65410:	00000002 	udf	#2
   65414:	00000000 	udf	#0
   65418:	00000120 	udf	#288
   6541c:	00000000 	udf	#0
   65420:	00000003 	udf	#3
   65424:	00000000 	udf	#0
   65428:	00065550 	.inst	0x00065550 ; undefined
   6542c:	00000000 	udf	#0
   65430:	00000014 	udf	#20
   65434:	00000000 	udf	#0
   65438:	00000007 	udf	#7
   6543c:	00000000 	udf	#0
   65440:	00000006 	udf	#6
   65444:	00000000 	udf	#0
   65448:	00000358 	udf	#856
   6544c:	00000000 	udf	#0
   65450:	0000000b 	udf	#11
   65454:	00000000 	udf	#0
   65458:	00000018 	udf	#24
   6545c:	00000000 	udf	#0
   65460:	00000005 	udf	#5
   65464:	00000000 	udf	#0
   65468:	000004ec 	udf	#1260
   6546c:	00000000 	udf	#0
   65470:	0000000a 	udf	#10
   65474:	00000000 	udf	#0
   65478:	000000a5 	udf	#165
   6547c:	00000000 	udf	#0
   65480:	6ffffef5 	.inst	0x6ffffef5 ; undefined
   65484:	00000000 	udf	#0
   65488:	000004d0 	udf	#1232
   6548c:	00000000 	udf	#0
   65490:	00000020 	udf	#32
   65494:	00000000 	udf	#0
   65498:	00065330 	.inst	0x00065330 ; undefined
   6549c:	00000000 	udf	#0
   654a0:	00000021 	udf	#33
   654a4:	00000000 	udf	#0
   654a8:	00000010 	udf	#16
   654ac:	00000000 	udf	#0
   654b0:	00000019 	udf	#25
   654b4:	00000000 	udf	#0
   654b8:	00065340 	.inst	0x00065340 ; undefined
   654bc:	00000000 	udf	#0
   654c0:	0000001b 	udf	#27
   654c4:	00000000 	udf	#0
   654c8:	00000010 	udf	#16
   654cc:	00000000 	udf	#0
   654d0:	0000001a 	udf	#26
   654d4:	00000000 	udf	#0
   654d8:	00065350 	.inst	0x00065350 ; undefined
   654dc:	00000000 	udf	#0
   654e0:	0000001c 	udf	#28
   654e4:	00000000 	udf	#0
   654e8:	00000010 	udf	#16
   654ec:	00000000 	udf	#0
   654f0:	6ffffff0 	.inst	0x6ffffff0 ; undefined
   654f4:	00000000 	udf	#0
   654f8:	00000490 	udf	#1168
   654fc:	00000000 	udf	#0
   65500:	6ffffffe 	.inst	0x6ffffffe ; undefined
   65504:	00000000 	udf	#0
   65508:	000004ac 	udf	#1196
   6550c:	00000000 	udf	#0
   65510:	6fffffff 	.inst	0x6fffffff ; undefined
   65514:	00000000 	udf	#0
   65518:	00000001 	udf	#1
	...

Disassembly of section .got:

0000000000065530 <.got>:
	...

Disassembly of section .got.plt:

0000000000065550 <.got.plt>:
	...
   65568:	00064250 	.inst	0x00064250 ; undefined
   6556c:	00000000 	udf	#0
   65570:	00064250 	.inst	0x00064250 ; undefined
   65574:	00000000 	udf	#0
   65578:	00064250 	.inst	0x00064250 ; undefined
   6557c:	00000000 	udf	#0
   65580:	00064250 	.inst	0x00064250 ; undefined
   65584:	00000000 	udf	#0
   65588:	00064250 	.inst	0x00064250 ; undefined
   6558c:	00000000 	udf	#0
   65590:	00064250 	.inst	0x00064250 ; undefined
   65594:	00000000 	udf	#0
   65598:	00064250 	.inst	0x00064250 ; undefined
   6559c:	00000000 	udf	#0
   655a0:	00064250 	.inst	0x00064250 ; undefined
   655a4:	00000000 	udf	#0
   655a8:	00064250 	.inst	0x00064250 ; undefined
   655ac:	00000000 	udf	#0
   655b0:	00064250 	.inst	0x00064250 ; undefined
   655b4:	00000000 	udf	#0
   655b8:	00064250 	.inst	0x00064250 ; undefined
   655bc:	00000000 	udf	#0
   655c0:	00064250 	.inst	0x00064250 ; undefined
   655c4:	00000000 	udf	#0

Disassembly of section .bss:

00000000000665c8 <__dso_handle>:
	...

00000000000665d0 <USED>:
   665d0:	00000000 	udf	#0

00000000000665d4 <ARR>:
	...

0000000000066dd4 <Message.MESS>:
	...

00000000000675d4 <Message.num>:
   675d4:	00000000 	udf	#0

Disassembly of section .comment:

0000000000000000 <.comment>:
   0:	72646e41 	.inst	0x72646e41 ; undefined
   4:	2064696f 	.inst	0x2064696f ; undefined
   8:	31373728 	adds	w8, w25, #0xdcd
   c:	39353034 	strb	w20, [x1, #3404]
  10:	6162202c 	.inst	0x6162202c ; undefined
  14:	20646573 	.inst	0x20646573 ; undefined
  18:	72206e6f 	ands	w15, w19, #0xfffffff
  1c:	31363134 	adds	w20, w9, #0xd8c
  20:	31633338 	adds	w24, w25, #0x8cc, lsl #12
  24:	6c632029 	ldnp	d9, d8, [x1, #-464]
  28:	20676e61 	.inst	0x20676e61 ; undefined
  2c:	73726576 	.inst	0x73726576 ; undefined
  30:	206e6f69 	.inst	0x206e6f69 ; undefined
  34:	302e3231 	adr	x17, 5c679 <note_end+0x5c321>
  38:	2820382e 	stnp	w14, w14, [x1, #-256]
  3c:	70747468 	adr	x8, e8ecb <Message.num+0x818f7>
  40:	2f2f3a73 	.inst	0x2f2f3a73 ; undefined
  44:	72646e61 	.inst	0x72646e61 ; undefined
  48:	2e64696f 	.inst	0x2e64696f ; undefined
  4c:	676f6f67 	.inst	0x676f6f67 ; undefined
  50:	6f73656c 	sqshlu	v12.2d, v11.2d, #51
  54:	65637275 	fnmls	z21.h, p4/m, z19.h, z3.h
  58:	6d6f632e 	ldp	d14, d24, [x25, #-272]
  5c:	6f6f742f 	uqshl	v15.2d, v1.2d, #47
  60:	6168636c 	.inst	0x6168636c ; undefined
  64:	6c2f6e69 	stnp	d9, d27, [x19, #-272]
  68:	2d6d766c 	ldp	s12, s29, [x19, #-152]
  6c:	6a6f7270 	bics	w16, w19, w15, lsr #28
  70:	20746365 	.inst	0x20746365 ; undefined
  74:	35333963 	cbnz	w3, 667a0 <ARR+0x1cc>
  78:	64393964 	.inst	0x64393964 ; undefined
  7c:	32666337 	.inst	0x32666337 ; undefined
  80:	32363130 	orr	w16, w9, #0x7ffc00
  84:	30333938 	adr	x24, 667a9 <ARR+0x1d5>
  88:	32313432 	orr	w18, w1, #0x1fff8000
  8c:	38303764 	.inst	0x38303764 ; undefined
  90:	64313436 	.inst	0x64313436 ; undefined
  94:	32643235 	.inst	0x32643235 ; undefined
  98:	65653766 	fmls	z6.h, p5/m, z27.h, z5.h
  9c:	6c630029 	ldnp	d9, d0, [x1, #-464]
  a0:	20676e61 	.inst	0x20676e61 ; undefined
  a4:	73726576 	.inst	0x73726576 ; undefined
  a8:	206e6f69 	.inst	0x206e6f69 ; undefined
  ac:	302e3431 	adr	x17, 5c731 <note_end+0x5c3d9>
  b0:	0000352e 	udf	#13614
  b4:	6b6e694c 	.inst	0x6b6e694c ; undefined
  b8:	203a7265 	.inst	0x203a7265 ; undefined
  bc:	20444c4c 	.inst	0x20444c4c ; undefined
  c0:	302e3431 	adr	x17, 5c745 <note_end+0x5c3ed>
  c4:	Address 0x00000000000000c4 is out of bounds.

